(dp0
S'PA446429'
p1
S'Polycystic Kidney, Autosomal Recessive'
p2
sS'PA444119'
p3
S'Eye Diseases'
p4
sS'PA444117'
p5
S'Eye Abnormalities'
p6
sS'PA444115'
p7
S'Cardiac Complexes, Premature'
p8
sS'PA444114'
p9
S'Exotropia'
p10
sS'PA444113'
p11
S'Exostoses, Multiple Hereditary'
p12
sS'PA444112'
p13
S'Exostoses'
p14
sS'PA444111'
p15
S'Exophthalmos'
p16
sS'PA152545810'
p17
S'Lethal Congenital Contractual Syndrome Type 3'
p18
sS'PA166114454'
p19
S'transplant rejection'
p20
sS'PA152068054'
p21
S'Acquired partial lipodystrophy'
p22
sS'PA445413'
p23
S'Preleukemia'
p24
sS'PA166114457'
p25
S'lung transplantation'
p26
sS'PA445417'
p27
S'Priapism'
p28
sS'PA445416'
p29
S'Presbyopia'
p30
sS'PA443949'
p31
S'Dwarfism'
p32
sS'PA166114458'
p33
S'heart transplantation'
p34
sS'PA166114459'
p35
S'pancreas transplant'
p36
sS'PA165108309'
p37
S'Total great vessel transposition'
p38
sS'PA444881'
p39
S'Mastitis'
p40
sS'PA165108796'
p41
S'Hepatic peliosis'
p42
sS'PA444880'
p43
S'Marfan Syndrome'
p44
sS'PA153627462'
p45
S'Pontocerebellar Hypoplasia'
p46
sS'PA152208657'
p47
S'Cardio-facio-cutaneous Syndrome'
p48
sS'PA444883'
p49
S'Mastocytosis'
p50
sS'PA165108962'
p51
S'Open fracture of bones, unspecified'
p52
sS'PA165109060'
p53
S'Acute paralytic poliomyelitis, bulbar'
p54
sS'PA165109061'
p55
S'Echinococcus NOS'
p56
sS'PA165109062'
p57
S'Hidradenoma'
p58
sS'PA165109063'
p59
S'Complex partial epileptic seizure'
p60
sS'PA165109064'
p61
S'Peliosis hepatis'
p62
sS'PA445739'
p63
S'Gastric Dilatation'
p64
sS'PA165109066'
p65
S'Wissler-Fanconi syndrome'
p66
sS'PA165109067'
p67
S'Mycobacterial disease NOS'
p68
sS'PA165109068'
p69
S'Cardiovascular syphilis NOS'
p70
sS'PA165109069'
p71
S'Sebaceous gland diseases NOS'
p72
sS'PA445736'
p73
S'Status Epilepticus'
p74
sS'PA445732'
p75
S'Staphylococcal Scalded Skin Syndrome'
p76
sS'PA444602'
p77
S'Immune System Diseases'
p78
sS'PA444601'
p79
S'Immunologic Deficiency Syndromes'
p80
sS'PA444607'
p81
S'Inappropriate ADH Syndrome'
p82
sS'PA444606'
p83
S'Erectile Dysfunction'
p84
sS'PA166048869'
p85
S'Mesenteric Vascular Occlusion'
p86
sS'PA166048868'
p87
S'Current Non-smoker'
p88
sS'PA166048863'
p89
S'Strongyloidiasis'
p90
sS'PA166048862'
p91
S'Mansonelliasis'
p92
sS'PA166048861'
p93
S'Elephantiasis'
p94
sS'PA166048860'
p95
S'Onchocerciasis'
p96
sS'PA166048867'
p97
S'Meningeal Neoplasms'
p98
sS'PA166048866'
p99
S'Adnexal Diseases'
p100
sS'PA166048865'
p101
S'Maxillary Sinusitis'
p102
sS'PA166048864'
p103
S'Ascariasis'
p104
sS'PA165108621'
p105
S'Pyogenic granuloma NOS'
p106
sS'PA165108620'
p107
S'Tuberculosis of liver'
p108
sS'PA165108623'
p109
S'Fibrocystic disease of breast'
p110
sS'PA165108622'
p111
S'Drug interaction with drug'
p112
sS'PA165108625'
p113
S'Unspecified hebephrenic schizophrenia'
p114
sS'PA165108624'
p115
S'Chronic pericementitis'
p116
sS'PA166122646'
p117
S'hemopoietic stem cell transplant'
p118
sS'PA446295'
p119
S'Lentivirus Infections'
p120
sS'PA165108629'
p121
S'Latex allergy'
p122
sS'PA165108628'
p123
S'Induced psychotic disorder'
p124
sS'PA446050'
p125
S'Voice Disorders'
p126
sS'PA445083'
p127
S'Nephritis, Interstitial'
p128
sS'PA445080'
p129
S'Neovascularization, Pathologic'
p130
sS'PA445081'
p131
S'Nephritis'
p132
sS'PA445086'
p133
S'Nephrosclerosis'
p134
sS'PA445087'
p135
S'Nephrosis'
p136
sS'PA445084'
p137
S'Wilms Tumor'
p138
sS'PA445085'
p139
S'Nephrocalcinosis'
p140
sS'PA446058'
p141
S"Waardenburg's Syndrome"
p142
sS'PA445089'
p143
S'Nephrotic Syndrome'
p144
sS'PA165108724'
p145
S'Pyelitis unspecified'
p146
sS'PA445640'
p147
S'Sexually Transmitted Diseases'
p148
sS'PA445641'
p149
S'Sezary Syndrome'
p150
sS'PA165109190'
p151
S'General adaptation syndrome'
p152
sS'PA165109191'
p153
S'Fracture of humerus NOS'
p154
sS'PA165109192'
p155
S'Pyometra unspecified'
p156
sS'PA444769'
p157
S'Leukodystrophy, Metachromatic'
p158
sS'PA445648'
p159
S'Shock, Surgical'
p160
sS'PA445649'
p161
S'Shock, Traumatic'
p162
sS'PA444737'
p163
S'Leiomyoma'
p164
sS'PA444736'
p165
S'Leigh Disease'
p166
sS'PA165108829'
p167
S'Foot-and-mouth disease'
p168
sS'PA165108828'
p169
S'Alcoholic fatty liver'
p170
sS'PA165108827'
p171
S'Fistula of salivary gland NOS'
p172
sS'PA165108826'
p173
S'Aneurysm of heart NOS'
p174
sS'PA165108825'
p175
S'Ectopia cordis'
p176
sS'PA165108824'
p177
S'Unspecified keratoconus'
p178
sS'PA165108823'
p179
S'Postpartum hemorrhage NOS'
p180
sS'PA165108822'
p181
S'Rhabdomyoma'
p182
sS'PA444739'
p183
S'Leishmaniasis'
p184
sS'PA165108820'
p185
S'Hiatus hernia NOS'
p186
sS'PA165108485'
p187
S'Pinta NOS'
p188
sS'PA165108484'
p189
S'Depressed fracture of skull'
p190
sS'PA165108487'
p191
S'Genitourinary tuberculosis NOS'
p192
sS'PA165108954'
p193
S'Menstruation disorder NOS'
p194
sS'PA165108481'
p195
S'Disease of spleen NOS'
p196
sS'PA165108952'
p197
S'Li-Fraumeni syndrome'
p198
sS'PA165108951'
p199
S'Classic apraxia'
p200
sS'PA166114455'
p201
S'acute cellular rejection'
p202
sS'PA447276'
p203
S'Thrombosis of cerebral veins'
p204
sS'PA165108489'
p205
S'Latent syphilis unspecified'
p206
sS'PA165108488'
p207
S'Polyarteritis nodosa NOS'
p208
sS'PA165108959'
p209
S'Dislocation of shoulder NOS'
p210
sS'PA165108958'
p211
S'Epidemic pleurodynia'
p212
sS'PA165108135'
p213
S'Neonatal alloimmune thrombocytopenia'
p214
sS'PA165108134'
p215
S'Malignant tumor of Islets of Langerhans'
p216
sS'PA165108137'
p217
S'Retinitis NOS'
p218
sS'PA165108136'
p219
S'Radicular cyst NOS'
p220
sS'PA165108131'
p221
S'Bladder disorders NOS'
p222
sS'PA165108130'
p223
S'Krukenberg tumor'
p224
sS'PA165108133'
p225
S'Acquired immune deficiency syndrome-related nephropathy'
p226
sS'PA165108132'
p227
S'Fracture of radius NOS'
p228
sS'PA443967'
p229
S'Dyspnea'
p230
sS'PA443966'
p231
S'Dysplastic Nevus Syndrome'
p232
sS'PA443965'
p233
S'Dyspepsia'
p234
sS'PA165108139'
p235
S'Allergy to wheat'
p236
sS'PA165108138'
p237
S'Acute suppurative thyroiditis'
p238
sS'PA443960'
p239
S'Dyslexia'
p240
sS'PA445397'
p241
S'Prader-Willi Syndrome'
p242
sS'PA445391'
p243
S'Postoperative Complications'
p244
sS'PA165108436'
p245
S'Osteitis fibrosa cystica generalisata'
p246
sS'PA165818136'
p247
S'Shortened QT interval'
p248
sS'PA445418'
p249
S'Proctitis'
p250
sS'PA444421'
p251
S'Hemorrhagic Disorders'
p252
sS'PA445552'
p253
S'Rheumatic Fever'
p254
sS'PA166122489'
p255
S'hepatic steatosis'
p256
sS'PA443497'
p257
S'Biliary Atresia'
p258
sS'PA166048718'
p259
S'Escherichia coli Infections'
p260
sS'PA443495'
p261
S'Cholestasis, Extrahepatic'
p262
sS'PA443494'
p263
S'Bile Duct Neoplasms'
p264
sS'PA443490'
p265
S'Bernard-Soulier Syndrome'
p266
sS'PA166048715'
p267
S'Megacolon, Toxic'
p268
sS'PA166048714'
p269
S'Pregnancy'
p270
sS'PA166048717'
p271
S'Porphyria, Acute Intermittent'
p272
sS'PA166048716'
p273
S'Glaucoma, Angle-Closure'
p274
sS'PA446478'
p275
S'HELLP Syndrome'
p276
sS'PA446479'
p277
S'Hypertrophy, Left Ventricular'
p278
sS'PA446281'
p279
S'Piebaldism'
p280
sS'PA166048810'
p281
S'Respiratory Syncytial Virus Infections'
p282
sS'PA165108720'
p283
S'Leucoplakia of penis'
p284
sS'PA165108553'
p285
S'Tay-Sachs disease, variant AB'
p286
sS'PA446473'
p287
S'Neurofibromatoses'
p288
sS'PA165108551'
p289
S'Intestinal parasitism NOS'
p290
sS'PA165108550'
p291
S'Colorado tick fever'
p292
sS'PA165108557'
p293
S'11q partial monosomy syndrome'
p294
sS'PA446477'
p295
S'Polymyositis'
p296
sS'PA165108555'
p297
S'Schizoid personality disorder NOS'
p298
sS'PA165108554'
p299
S'Paraproteinemia NOS'
p300
sS'PA443365'
p301
S'Angioid Streaks'
p302
sS'PA443364'
p303
S'Angina, Unstable'
p304
sS'PA443367'
p305
S'Fabry Disease'
p306
sS'PA443366'
p307
S'Angiokeratoma'
p308
sS'PA443817'
p309
S'Croup'
p310
sS'PA443360'
p311
S'Aneurysm, Dissecting'
p312
sS'PA443815'
p313
S'Crohn Disease'
p314
sS'PA443362'
p315
S'Angina Pectoris'
p316
sS'PA446271'
p317
S'Oligohydramnios'
p318
sS'PA445260'
p319
S'Parotitis'
p320
sS'PA446273'
p321
S'Epidermolysis Bullosa Dystrophica'
p322
sS'PA446275'
p323
S'Epidermolysis Bullosa Simplex'
p324
sS'PA446277'
p325
S'Ichthyosis Vulgaris'
p326
sS'PA445068'
p327
S'Neoplasms, Glandular and Epithelial'
p328
sS'PA443562'
p329
S'Bronchial Diseases'
p330
sS'PA443560'
p331
S'Breast Neoplasms'
p332
sS'PA443567'
p333
S'Bronchiolitis'
p334
sS'PA443566'
p335
S'Bronchiectasis'
p336
sS'PA443565'
p337
S'Bronchial Spasm'
p338
sS'PA445062'
p339
S'Neoplasms'
p340
sS'PA445066'
p341
S'Neoplasms, Germ Cell and Embryonal'
p342
sS'PA443389'
p343
S'Anus, Imperforate'
p344
sS'PA443388'
p345
S'Anus Neoplasms'
p346
sS'PA443382'
p347
S'Anoxia'
p348
sS'PA443380'
p349
S'Anovulation'
p350
sS'PA443385'
p351
S'Anthrax'
p352
sS'PA446515'
p353
S'Microvascular Angina'
p354
sS'PA446510'
p355
S'Aortic Aneurysm, Thoracic'
p356
sS'PA446512'
p357
S'Lung Diseases, Interstitial'
p358
sS'PA447017'
p359
S'Paraneoplastic Syndromes, Nervous System'
p360
sS'PA165108319'
p361
S'Marburg virus disease'
p362
sS'PA165108318'
p363
S'Bloody peritoneal effusion'
p364
sS'PA447011'
p365
S'Paraparesis, Spastic'
p366
sS'PA447010'
p367
S'Paraparesis'
p368
sS'PA165108315'
p369
S'Alcoholic polyneuropathy'
p370
sS'PA165108314'
p371
S'Yellow fever unspecified'
p372
sS'PA165108317'
p373
S'Developmental disorder NOS'
p374
sS'PA165108316'
p375
S'Mucoid otitis media NOS'
p376
sS'PA165108311'
p377
S'Great vessel transposition NOS'
p378
sS'PA165108310'
p379
S'Dermatitis medicamentosa'
p380
sS'PA165108313'
p381
S'Disorder of sexual differentiation'
p382
sS'PA165108312'
p383
S'Niemann-Pick disease, type A'
p384
sS'PA443707'
p385
S'Cholestasis'
p386
sS'PA443706'
p387
S'Cholera'
p388
sS'PA443705'
p389
S'Cholelithiasis'
p390
sS'PA443704'
p391
S'Cholecystitis'
p392
sS'PA443703'
p393
S'Cholangitis'
p394
sS'PA443701'
p395
S'Choanal Atresia'
p396
sS'PA165108579'
p397
S'Periventricular leucomalacia'
p398
sS'PA166048808'
p399
S'Salmonella Infections, Animal'
p400
sS'PA443708'
p401
S'Cholestasis, Intrahepatic'
p402
sS'PA444939'
p403
S'Metabolism, Inborn Errors'
p404
sS'PA444938'
p405
S'Metabolic Diseases'
p406
sS'PA444289'
p407
S'Glomerulosclerosis, Focal Segmental'
p408
sS'PA444288'
p409
S'Glomerulonephritis, IGA'
p410
sS'PA444287'
p411
S'Glomerulonephritis'
p412
sS'PA165108193'
p413
S'Ocular penetration, unspecified'
p414
sS'PA444285'
p415
S'Gliosis'
p416
sS'PA444284'
p417
S'Glioma'
p418
sS'PA444283'
p419
S'Glioblastoma'
p420
sS'PA444282'
p421
S'Glaucoma, Open-Angle'
p422
sS'PA444281'
p423
S'Glaucoma'
p424
sS'PA444280'
p425
S'Glanders'
p426
sS'PA446609'
p427
S'Fibroadenoma'
p428
sS'PA145069467'
p429
S'Hearing Loss, nonsyndromic'
p430
sS'PA145069464'
p431
S'Deafness,nonsyndromic'
p432
sS'PA446605'
p433
S'Fibromatosis, Aggressive'
p434
sS'PA165108577'
p435
S'Secondary dentin'
p436
sS'PA165108576'
p437
S"Silo-fillers' disease"
p438
sS'PA446023'
p439
S'Vasculitis'
p440
sS'PA165108571'
p441
S'Brenner tumour of ovary'
p442
sS'PA443639'
p443
S'Carpal Tunnel Syndrome'
p444
sS'PA443633'
p445
S'Cardiomyopathy, Hypertrophic'
p446
sS'PA443632'
p447
S'Cardiomyopathy, Dilated'
p448
sS'PA128407012'
p449
S'cancer or viral infections'
p450
sS'PA443636'
p451
S'Carotid Artery Diseases'
p452
sS'PA443635'
p453
S'Cardiovascular Diseases'
p454
sS'PA443634'
p455
S'Cardiomyopathy, Restrictive'
p456
sS'PA443422'
p457
S'Arrhythmia, Sinus'
p458
sS'PA443423'
p459
S'Arterial Occlusive Diseases'
p460
sS'PA446029'
p461
S'Ventricular Outflow Obstruction'
p462
sS'PA150799050'
p463
S'secondary leukemia'
p464
sS'PA446028'
p465
S'Ventricular Fibrillation'
p466
sS'PA443421'
p467
S'Arrhythmias, Cardiac'
p468
sS'PA445883'
p469
S'Tonsillitis'
p470
sS'PA445079'
p471
S'Neoplastic Syndromes, Hereditary'
p472
sS'PA445887'
p473
S'Tooth Diseases'
p474
sS'PA443427'
p475
S'Arteriovenous Fistula'
p476
sS'PA165108190'
p477
S'Herpes zoster encephalitis'
p478
sS'PA443425'
p479
S'Arteriosclerosis'
p480
sS'PA445738'
p481
S'Stevens-Johnson Syndrome'
p482
sS'PA444714'
p483
S'Language Disorders'
p484
sS'PA446890'
p485
S'Zygomycosis'
p486
sS'PA165109065'
p487
S'Unspecified labyrinthitis'
p488
sS'PA446255'
p489
S'Iridocyclitis'
p490
sS'PA165109049'
p491
S'Splenosis'
p492
sS'PA165966294'
p493
S'Palmar-plantar erythrodysaesthesia syndrome'
p494
sS'PA166048896'
p495
S'High Pressure Neurological Syndrome'
p496
sS'PA166048897'
p497
S'Child Behavior Disorders'
p498
sS'PA166048894'
p499
S'Central Nervous System Fungal Infections'
p500
sS'PA166048895'
p501
S'Meningitis, Fungal'
p502
sS'PA166048892'
p503
S'Radiation Injuries, Experimental'
p504
sS'PA166048893'
p505
S'Fungemia'
p506
sS'PA166048890'
p507
S'Respiratory Hypersensitivity'
p508
sS'PA166048891'
p509
S'Hypercapnia'
p510
sS'PA446244'
p511
S'Osteochondroma'
p512
sS'PA166048898'
p513
S'Herpes Labialis'
p514
sS'PA166048899'
p515
S'Epilepsy, Benign Neonatal'
p516
sS'PA165108932'
p517
S'Placental abruption unspecified'
p518
sS'PA445365'
p519
S'Pneumonia, Viral'
p520
sS'PA446861'
p521
S'Hepatitis, Autoimmune'
p522
sS'PA446863'
p523
S'Hepatitis C, Chronic'
p524
sS'PA446862'
p525
S'Hepatitis B, Chronic'
p526
sS'PA446864'
p527
S'Hepatitis D, Chronic'
p528
sS'PA446867'
p529
S'Epiretinal Membrane'
p530
sS'PA445595'
p531
S'Sarcoma 180'
p532
sS'PA142188754'
p533
S'Feingold Syndrome'
p534
sS'PA445553'
p535
S'Rheumatic Heart Disease'
p536
sS'PA166048783'
p537
S'Staphylococcal Skin Infections'
p538
sS'PA445361'
p539
S'Pneumonia, Pneumocystis'
p540
sS'PA165108971'
p541
S'Unspecified radiation effects NOS'
p542
sS'PA444127'
p543
S'Facial Asymmetry'
p544
sS'PA445047'
p545
S'Nasopharyngitis'
p546
sS'PA445044'
p547
S'Nasal Polyps'
p548
sS'PA445464'
p549
S'Pulmonary Edema'
p550
sS'PA445465'
p551
S'Pulmonary Embolism'
p552
sS'PA445466'
p553
S'Pulmonary Emphysema'
p554
sS'PA445467'
p555
S'Pulmonary Eosinophilia'
p556
sS'PA166123506'
p557
S'drug discontinued - patient fear/risk'
p558
sS'PA166123507'
p559
S'discontinuation'
p560
sS'PA165108975'
p561
S'Vulvitis unspecified'
p562
sS'PA445468'
p563
S'Pulmonary Fibrosis'
p564
sS'PA445469'
p565
S'Pulmonary Heart Disease'
p566
sS'PA445043'
p567
S'Opioid-Related Disorders'
p568
sS'PA445078'
p569
S'Neoplastic Processes'
p570
sS'PA445369'
p571
S'Rothmund-Thomson Syndrome'
p572
sS'PA166048789'
p573
S'Pregnancy Complications, Infectious'
p574
sS'PA165109055'
p575
S'Acute abdomen'
p576
sS'PA165111675'
p577
S'Drug Resistance'
p578
sS'PA165109057'
p579
S'Ovotestis'
p580
sS'PA165109056'
p581
S'Parapsoriasis unspecified'
p582
sS'PA165109051'
p583
S'Pars planitis'
p584
sS'PA446437'
p585
S'Porphyrias, Hepatic'
p586
sS'PA165109053'
p587
S'Fluorosis'
p588
sS'PA165109052'
p589
S'Hysteria NOS'
p590
sS'PA445725'
p591
S'Spondylolisthesis'
p592
sS'PA445724'
p593
S'Spondylitis, Ankylosing'
p594
sS'PA165109059'
p595
S'Bile duct disorder NOS'
p596
sS'PA165109058'
p597
S'Epidermal naevus syndrome'
p598
sS'PA162373095'
p599
S'Humero-spinal Dysostosis'
p600
sS'PA444637'
p601
S'Intestinal Perforation'
p602
sS'PA444635'
p603
S'Intestinal Neoplasms'
p604
sS'PA444632'
p605
S'Intestinal Diseases'
p606
sS'PA444631'
p607
S'Intestinal Atresia'
p608
sS'PA165108423'
p609
S'Mossy foot disease'
p610
sS'PA162373099'
p611
S'Skeletal Dysplasia'
p612
sS'PA162373098'
p613
S'Mitochondrial Encephalomyopathies'
p614
sS'PA444638'
p615
S'Intestinal Polyps'
p616
sS'PA444639'
p617
S'Intestinal Pseudo-Obstruction'
p618
sS'PA166048878'
p619
S'Neisseriaceae Infections'
p620
sS'PA166048879'
p621
S'Pregnancy Second Trimester'
p622
sS'PA166123431'
p623
S'heart valve replacement'
p624
sS'PA166048870'
p625
S'Toothache'
p626
sS'PA166048871'
p627
S'Intracranial Embolism and Thrombosis'
p628
sS'PA166048872'
p629
S'Plant Poisoning'
p630
sS'PA166048873'
p631
S'Foot Ulcer'
p632
sS'PA166048874'
p633
S'Aortic Arch Syndromes'
p634
sS'PA166048875'
p635
S'Water-Electrolyte Imbalance'
p636
sS'PA166048876'
p637
S'Pneumonia, Mycoplasma'
p638
sS'PA166048877'
p639
S'Sexually Transmitted Diseases, Bacterial'
p640
sS'PA165108636'
p641
S'Cerebral hemorrhage following injury NOS'
p642
sS'PA165108637'
p643
S'Aneurysmal bone cyst'
p644
sS'PA165108634'
p645
S"Harada's disease"
p646
sS'PA165108635'
p647
S'Paracoccidioidomycosis NOS'
p648
sS'PA165108632'
p649
S'Bone spur NOS'
p650
sS'PA446280'
p651
S'Albinism, Oculocutaneous'
p652
sS'PA165108630'
p653
S'Apudoma of skin'
p654
sS'PA446282'
p655
S'Albinism, Ocular'
p656
sS'PA445179'
p657
S'Osteochondrodysplasias'
p658
sS'PA446288'
p659
S'Disorder of the genitourinary system'
p660
sS'PA165108638'
p661
S'Dislocation of hip NOS'
p662
sS'PA165108639'
p663
S'Gonococcal infections NOS'
p664
sS'PA445095'
p665
S'Neural Tube Defects'
p666
sS'PA445094'
p667
S'Nervous System Neoplasms'
p668
sS'PA445097'
p669
S'Neurilemmoma'
p670
sS'PA445096'
p671
S'Neuralgia'
p672
sS'PA445091'
p673
S'Nerve Degeneration'
p674
sS'PA445090'
p675
S'Nerve Compression Syndromes'
p676
sS'PA162370425'
p677
S'Hypouricemia'
p678
sS'PA445092'
p679
S'Nervous System Malformations'
p680
sS'PA446049'
p681
S'Vocal Cord Paralysis'
p682
sS'PA445099'
p683
S'Neuritis, Autoimmune, Experimental'
p684
sS'PA445098'
p685
S'Neuritis'
p686
sS'PA444702'
p687
S'Kyphosis'
p688
sS'PA444703'
p689
S'Obstetric Labor Complications'
p690
sS'PA444700'
p691
S'Kwashiorkor'
p692
sS'PA445658'
p693
S'Sialorrhea'
p694
sS'PA444704'
p695
S'Premature Birth'
p696
sS'PA165108838'
p697
S'Aspartylglucosaminuria'
p698
sS'PA165108839'
p699
S'Psychomotor epilepsy'
p700
sS'PA165108834'
p701
S'Avian malaria'
p702
sS'PA165108835'
p703
S'Traumatic optic neuropathy'
p704
sS'PA165108836'
p705
S'Trigeminal nerve disorder NOS'
p706
sS'PA165108837'
p707
S'Akinetic mutism'
p708
sS'PA165108830'
p709
S'Prostatic disorders NOS'
p710
sS'PA165108831'
p711
S'Acrodynia due to mercury'
p712
sS'PA165108832'
p713
S'Osteochondritis NOS'
p714
sS'PA165108833'
p715
S'Gerstmann-Straussler-Scheinker syndrome'
p716
sS'PA165108944'
p717
S'Disorder of uterus NOS'
p718
sS'PA165108945'
p719
S'Post-traumatic epilepsy'
p720
sS'PA165108946'
p721
S'Disorder of fetal nutrition'
p722
sS'PA165108129'
p723
S'Olfactory neuroblastoma'
p724
sS'PA165108940'
p725
S'Pneumatosis cystoides intestinalis'
p726
sS'PA165108941'
p727
S'Acoustic nerve disorder NOS'
p728
sS'PA165108942'
p729
S'Pseudopseudohypoparathyroidism'
p730
sS'PA165108943'
p731
S'Retained placenta NOS'
p732
sS'PA165108122'
p733
S'Posterior tibial neuropathy'
p734
sS'PA165108123'
p735
S'Silicotuberculosis'
p736
sS'PA165108120'
p737
S'Chondrocalcinosis NOS'
p738
sS'PA165108121'
p739
S'California encephalitis virus infection neuroinvasive disease'
p740
sS'PA165108126'
p741
S'Lymphangiosarcoma'
p742
sS'PA165108127'
p743
S'Erythrasma'
p744
sS'PA165108124'
p745
S'Asbestosis NOS'
p746
sS'PA165108125'
p747
S'Alcohol amnestic syndrome NOS'
p748
sS'PA443952'
p749
S'Dysautonomia, Familial'
p750
sS'PA165108276'
p751
S'Malignant myopia'
p752
sS'PA443950'
p753
S'Dwarfism, Pituitary'
p754
sS'PA443951'
p755
S'Dysarthria'
p756
sS'PA446823'
p757
S'Pseudolymphoma'
p758
sS'PA443955'
p759
S'Dysentery, Bacillary'
p760
sS'PA445381'
p761
S'Adenomatous Polyposis Coli'
p762
sS'PA445380'
p763
S'Polyneuropathies'
p764
sS'PA443958'
p765
S'Dysgeusia'
p766
sS'PA443959'
p767
S'Dyskinesia, Drug-Induced'
p768
sS'PA445385'
p769
S'Polyuria'
p770
sS'PA165108274'
p771
S'Acute stress reaction NOS'
p772
sS'PA165108427'
p773
S'Unspecified corneal ulcer'
p774
sS'PA445272'
p775
S'Pemphigoid, Bullous'
p776
sS'PA446294'
p777
S'Torsades de Pointes'
p778
sS'PA166048764'
p779
S'Tetany'
p780
sS'PA165108736'
p781
S'Prurigo NOS'
p782
sS'PA165108626'
p783
S'Perinatal necrotizing enterocolitis'
p784
sS'PA166048765'
p785
S'Tuberculosis, Cutaneous'
p786
sS'PA446111'
p787
S'Osteoarthritis, Hip'
p788
sS'PA166048766'
p789
S'Skin Diseases, Viral'
p790
sS'PA444418'
p791
S'Gastrointestinal Hemorrhage'
p792
sS'PA166122649'
p793
S'postanesthesia apnea'
p794
sS'PA444416'
p795
S'Hemoptysis'
p796
sS'PA444417'
p797
S'Hemorrhage'
p798
sS'PA444414'
p799
S'Hemophilia A'
p800
sS'PA165108271'
p801
S'Lumpy skin disease'
p802
sS'PA444412'
p803
S'Hemolytic-Uremic Syndrome'
p804
sS'PA145007155'
p805
S'Martsolf Syndrome'
p806
sS'PA444411'
p807
S'Hemolysis'
p808
sS'PA165108741'
p809
S'Sporotrichosis NOS'
p810
sS'PA165108735'
p811
S'Spermatocele'
p812
sS'PA446115'
p813
S'Zellweger Syndrome'
p814
sS'PA165108747'
p815
S'Central pontine myelinolysis'
p816
sS'PA165108548'
p817
S'Pachydermoperiostosis syndrome'
p818
sS'PA165108549'
p819
S'Digestive system diseases NOS'
p820
sS'PA443685'
p821
S'Uterine Cervical Neoplasms'
p822
sS'PA446117'
p823
S'Cholesterol Ester Storage Disease'
p824
sS'PA165108540'
p825
S'Basosquamous carcinoma of skin'
p826
sS'PA165108373'
p827
S'Biotinidase deficiency'
p828
sS'PA165108542'
p829
S'Dyssynergia cerebellaris myoclonica'
p830
sS'PA446116'
p831
S'Inflammatory Bowel Diseases'
p832
sS'PA165108544'
p833
S'Subacute combined degeneration of spinal cord'
p834
sS'PA446460'
p835
S'Angelman Syndrome'
p836
sS'PA165108546'
p837
S'March fracture'
p838
sS'PA165108547'
p839
S'Multiple personality disorder'
p840
sS'PA443826'
p841
S'Carcinoma, Adenoid Cystic'
p842
sS'PA443827'
p843
S'Cystadenocarcinoma'
p844
sS'PA443824'
p845
S'Cutis Laxa'
p846
sS'PA443825'
p847
S'Cyanosis'
p848
sS'PA443822'
p849
S'Cryptosporidiosis'
p850
sS'PA443823'
p851
S'Cushing Syndrome'
p852
sS'PA443820'
p853
S'Cryptococcosis'
p854
sS'PA443821'
p855
S'Cryptorchidism'
p856
sS'PA445275'
p857
S'Penile Induration'
p858
sS'PA446262'
p859
S'Mydriasis'
p860
sS'PA446261'
p861
S'Miosis'
p862
sS'PA446266'
p863
S'Pleural Effusion, Malignant'
p864
sS'PA443828'
p865
S'Cystadenoma'
p866
sS'PA443829'
p867
S'Cystic Fibrosis'
p868
sS'PA443556'
p869
S'Brain Injuries'
p870
sS'PA443557'
p871
S'Brain Neoplasms'
p872
sS'PA165108498'
p873
S'Cardiac oedema'
p874
sS'PA165108499'
p875
S'Glycogen storage disease, type IV'
p876
sS'PA443552'
p877
S'Brain Death'
p878
sS'PA443553'
p879
S'Brain Diseases'
p880
sS'PA443550'
p881
S'Brain Concussion'
p882
sS'PA165108492'
p883
S'Multiple pregnancy NOS, unspecified'
p884
sS'PA446054'
p885
S'Vulvar Diseases'
p886
sS'PA165108490'
p887
S'Tuberculosis of eye NOS'
p888
sS'PA445070'
p889
S'Multiple Endocrine Neoplasia'
p890
sS'PA165108496'
p891
S'Gray platelet syndrome'
p892
sS'PA165108497'
p893
S'Lichen sclerosus et atrophicus of the vulva'
p894
sS'PA165108494'
p895
S'Lateral epicondylitis'
p896
sS'PA443559'
p897
S'Breast Diseases'
p898
sS'PA445472'
p899
S'Pulmonary Valve Stenosis'
p900
sS'PA445118'
p901
S'Niemann-Pick Diseases'
p902
sS'PA447028'
p903
S'Nystagmus, Congenital'
p904
sS'PA161149039'
p905
S'xanthinuria'
p906
sS'PA447022'
p907
S'Pelizaeus-Merzbacher Disease'
p908
sS'PA447023'
p909
S'Myokymia'
p910
sS'PA443722'
p911
S'Choristoma'
p912
sS'PA447026'
p913
S'Muscular Dystrophy, Emery-Dreifuss'
p914
sS'PA447027'
p915
S'Muscular Dystrophy, Facioscapulohumeral'
p916
sS'PA447024'
p917
S'Isaacs Syndrome'
p918
sS'PA447025'
p919
S'Muscular Dystrophy, Duchenne'
p920
sS'PA165108302'
p921
S'Pulmonary alveolar proteinosis'
p922
sS'PA165108303'
p923
S'Lipomatosis dolorosa'
p924
sS'PA165108300'
p925
S'Oral mucosa leukoplakia NOS'
p926
sS'PA165108301'
p927
S'Avian influenza'
p928
sS'PA165108306'
p929
S'Traumatic facial neuropathy'
p930
sS'PA165108307'
p931
S'California serogroup virus neuroinvasive disease'
p932
sS'PA165108304'
p933
S'Embolism and thrombosis NOS'
p934
sS'PA165108305'
p935
S'Tularemia NOS'
p936
sS'PA443730'
p937
S'Chromosome Fragility'
p938
sS'PA443731'
p939
S'Chronic Disease'
p940
sS'PA443736'
p941
S'Cleft Lip'
p942
sS'PA443737'
p943
S'Cleft Palate'
p944
sS'PA443734'
p945
S'Cicatrix'
p946
sS'PA443735'
p947
S'Ciliary Motility Disorders'
p948
sS'PA445913'
p949
S'Trachoma'
p950
sS'PA445218'
p951
S'Pancreatic Neoplasms'
p952
sS'PA162168980'
p953
S'brachyolmia'
p954
sS'PA162364314'
p955
S'Very-long-chain Acyl-coenzyme A Dehydrogenase Deficiency'
p956
sS'PA161907430'
p957
S'Parkinsonian-pyramidal syndrome'
p958
sS'PA161907438'
p959
S'Thoracic Aortic Aneurysms and Dissections (TAAD)'
p960
sS'PA446678'
p961
S'Ganglioneuroblastoma'
p962
sS'PA445212'
p963
S'Pallor'
p964
sS'PA446675'
p965
S'Neoplasms, Neuroepithelial'
p966
sS'PA165108730'
p967
S'Pompholyx unspecified'
p968
sS'PA446673'
p969
S'Papilloma, Intraductal'
p970
sS'PA152530886'
p971
S'Eating Disorders'
p972
sS'PA445646'
p973
S'Shock, Hemorrhagic'
p974
sS'PA152408019'
p975
S'ACAD9 Deficiency'
p976
sS'PA165109193'
p977
S'Mastoiditis NOS'
p978
sS'PA443608'
p979
S'Carcinoid Heart Disease'
p980
sS'PA443609'
p981
S'Carcinoid Tumor'
p982
sS'PA443602'
p983
S'Marijuana Abuse'
p984
sS'PA443600'
p985
S'Candidiasis, Oral'
p986
sS'PA152407979'
p987
S'Familial aplasia of the vermis'
p988
sS'PA445817'
p989
S'Telangiectasis'
p990
sS'PA444386'
p991
S'Hemangioendothelioma'
p992
sS'PA444387'
p993
S'Hemangioma'
p994
sS'PA444819'
p995
S'Lupus erythematosus'
p996
sS'PA445899'
p997
S'Torsion'
p998
sS'PA444380'
p999
S'Heartburn'
p1000
sS'PA445896'
p1001
S'Tooth, Supernumerary'
p1002
sS'PA444388'
p1003
S'Hemangioma, Cavernous'
p1004
sS'PA445935'
p1005
S'Truncus Arteriosus, Persistent'
p1006
sS'PA446704'
p1007
S'Rhabdoid Tumor'
p1008
sS'PA165108264'
p1009
S'Postgastric surgery syndrome NOS'
p1010
sS'PA166114909'
p1011
S'n-acetyl glutamate synthetase deficiency'
p1012
sS'PA165108904'
p1013
S'Protein deficiency disease'
p1014
sS'PA152241932'
p1015
S'Opitz-Kaveggia syndrome'
p1016
sS'PA445644'
p1017
S'Shock'
p1018
sS'PA445819'
p1019
S'Temporomandibular Joint Disorders'
p1020
sS'PA150516584'
p1021
S'Homocysteinemia'
p1022
sS'PA444258'
p1023
S'Gaucher Disease'
p1024
sS'PA444259'
p1025
S'Genital Diseases, Female'
p1026
sS'PA444250'
p1027
S'Gastritis'
p1028
sS'PA444251'
p1029
S'Gastritis, Atrophic'
p1030
sS'PA444253'
p1031
S'Gastroenteritis'
p1032
sS'PA444255'
p1033
S'Gastroesophageal Reflux'
p1034
sS'PA444256'
p1035
S'Gastrointestinal Diseases'
p1036
sS'PA444257'
p1037
S'Gastrointestinal Neoplasms'
p1038
sS'PA446815'
p1039
S'Oral Ulcer'
p1040
sS'PA446817'
p1041
S'Branchio-Oto-Renal Syndrome'
p1042
sS'PA165108821'
p1043
S'Tympanic membrane perforation NOS'
p1044
sS'PA446812'
p1045
S'Iron Overload'
p1046
sS'PA446813'
p1047
S'Gingival Overgrowth'
p1048
sS'PA444738'
p1049
S'Leiomyosarcoma'
p1050
sS'PA446818'
p1051
S'Wasting Syndrome'
p1052
sS'PA165108957'
p1053
S'Venous ulcer of leg'
p1054
sS'PA165108956'
p1055
S'Parkes Weber syndrome'
p1056
sS'PA165108955'
p1057
S'Heat prostration NOS'
p1058
sS'PA444135'
p1059
S'Facial Paralysis'
p1060
sS'PA444134'
p1061
S'Facial Pain'
p1062
sS'PA165108486'
p1063
S'Senile keratoma'
p1064
sS'PA165108390'
p1065
S'Oat cell carcinoma of lung'
p1066
sS'PA444132'
p1067
S'Facial Nerve Diseases'
p1068
sS'PA165108907'
p1069
S'Tonic pupillary reaction'
p1070
sS'PA165108953'
p1071
S'Retinal vasculitis NOS'
p1072
sS'PA444139'
p1073
S'Factor XI Deficiency'
p1074
sS'PA445647'
p1075
S'Shock, Septic'
p1076
sS'PA165108480'
p1077
S'Unspecified scleritis'
p1078
sS'PA445477'
p1079
S'Purpura'
p1080
sS'PA445476'
p1081
S'Purine-Pyrimidine Metabolism, Inborn Errors'
p1082
sS'PA165108483'
p1083
S'Microcephaly, normal intelligence and immunodeficiency'
p1084
sS'PA445471'
p1085
S'Pulmonary Valve Insufficiency'
p1086
sS'PA447278'
p1087
S'Depression'
p1088
sS'PA446928'
p1089
S'Epilepsy, Reflex'
p1090
sS'PA446923'
p1091
S'Nocturnal Myoclonus Syndrome'
p1092
sS'PA446924'
p1093
S'Myoclonic Epilepsy, Juvenile'
p1094
sS'PA446925'
p1095
S'Myoclonic Epilepsies, Progressive'
p1096
sS'PA165109048'
p1097
S'Acquired hallux rigidus'
p1098
sS'PA165108292'
p1099
S'Pruritus ani'
p1100
sS'PA447049'
p1101
S'Paralysis, Hyperkalemic Periodic'
p1102
sS'PA165109042'
p1103
S'Eccrine hidradenoma'
p1104
sS'PA165109043'
p1105
S'Diffuse palmoplantar keratoderma of Thost-Unna'
p1106
sS'PA165109040'
p1107
S'Persistent pulmonary hypertension of the newborn'
p1108
sS'PA165109041'
p1109
S'Hemorrhoids NOS'
p1110
sS'PA165109046'
p1111
S'Immunoproliferative small intestinal disease'
p1112
sS'PA165109047'
p1113
S'Curvature of spine NOS'
p1114
sS'PA165109044'
p1115
S'Cleidocranial dysostosis'
p1116
sS'PA165109045'
p1117
S"Fuchs' corneal dystrophy"
p1118
sS'PA445712'
p1119
S'Spinal Injuries'
p1120
sS'PA444628'
p1121
S'Intermittent Claudication'
p1122
sS'PA445711'
p1123
S'Spinal Diseases'
p1124
sS'PA445716'
p1125
S'Spinocerebellar Degenerations'
p1126
sS'PA445714'
p1127
S'Spinal Osteophytosis'
p1128
sS'PA165108985'
p1129
S'Varus deformity of great toe'
p1130
sS'PA444621'
p1131
S'Influenza, Human'
p1132
sS'PA444620'
p1133
S'Inflammation'
p1134
sS'PA446279'
p1135
S'Ichthyosis, X-Linked'
p1136
sS'PA444624'
p1137
S'Sleep Initiation and Maintenance Disorders'
p1138
sS'PA444627'
p1139
S'Insulinoma'
p1140
sS'PA444626'
p1141
S'Insulin Resistance'
p1142
sS'PA447189'
p1143
S'Papillomavirus Infections'
p1144
sS'PA162630456'
p1145
S'Osteogenesis imperfecta, perinatal lethal'
p1146
sS'PA166048849'
p1147
S'Pneumonia, Pneumococcal'
p1148
sS'PA166048848'
p1149
S'Menopause'
p1150
sS'PA166048845'
p1151
S'Coronary Aneurysm'
p1152
sS'PA166048844'
p1153
S'Eye Infections, Fungal'
p1154
sS'PA166048847'
p1155
S'Urological Manifestations'
p1156
sS'PA166048846'
p1157
S'Gastric Outlet Obstruction'
p1158
sS'PA166048841'
p1159
S'Respiratory Tract Fistula'
p1160
sS'PA166048840'
p1161
S'Urethral Obstruction'
p1162
sS'PA166048843'
p1163
S'Oral Hemorrhage'
p1164
sS'PA166048842'
p1165
S'Factor VII Deficiency'
p1166
sS'PA165109010'
p1167
S'Nonspecific mesenteric lymphadenitis NOS'
p1168
sS'PA165108186'
p1169
S'Nephrogenic systemic fibrosis'
p1170
sS'PA145007152'
p1171
S'Dowling-Degos Disease(DDD)'
p1172
sS'PA446077'
p1173
S'Wolfram Syndrome'
p1174
sS'PA446074'
p1175
S'Wiskott-Aldrich Syndrome'
p1176
sS'PA446073'
p1177
S'Whooping Cough'
p1178
sS'PA446070'
p1179
S'West Nile Fever'
p1180
sS'PA446204'
p1181
S'Cowpox'
p1182
sS'PA165108204'
p1183
S'Thorax abscess NOS'
p1184
sS'PA446078'
p1185
S'Wound Infection'
p1186
sS'PA446079'
p1187
S'Wounds and Injuries'
p1188
sS'PA445664'
p1189
S'Signs and Symptoms'
p1190
sS'PA444719'
p1191
S'Laryngeal Neoplasms'
p1192
sS'PA445660'
p1193
S'Sickle Cell Trait'
p1194
sS'PA443963'
p1195
S'Dysostoses'
p1196
sS'PA165109016'
p1197
S'Pyonephrosis unspecified'
p1198
sS'PA444711'
p1199
S'Lactose Intolerance'
p1200
sS'PA444713'
p1201
S'Language Development Disorders'
p1202
sS'PA443962'
p1203
S'Dysmenorrhea'
p1204
sS'PA165108801'
p1205
S'Junctional ectopic tachycardia'
p1206
sS'PA165108800'
p1207
S'Placental site trophoblastic tumor'
p1208
sS'PA165108803'
p1209
S'Micrognathism unspecified'
p1210
sS'PA165108802'
p1211
S'Salmonella food poisoning'
p1212
sS'PA165108805'
p1213
S'White sponge naevus'
p1214
sS'PA165108804'
p1215
S'Herpes zoster auricularis'
p1216
sS'PA165108807'
p1217
S'Glycogen storage disease type VIII'
p1218
sS'PA165108806'
p1219
S'Labyrinthitis NOS'
p1220
sS'PA165108809'
p1221
S'Neonatal Abstinence Syndrome'
p1222
sS'PA165108808'
p1223
S'Gonococcal conjunctivitis neonatorum'
p1224
sS'PA447250'
p1225
S'codeine dependence'
p1226
sS'PA165108159'
p1227
S'Peritonsillar abscess'
p1228
sS'PA165108158'
p1229
S'Fistula of intestine NOS'
p1230
sS'PA165108157'
p1231
S'Extreme drug resistant tuberculosis'
p1232
sS'PA165108156'
p1233
S'Diabetes mellitus NOS with hyperosmolar coma'
p1234
sS'PA165108155'
p1235
S'Paroxysmal tachycardia NOS'
p1236
sS'PA165108154'
p1237
S'Coccidioidomycosis NOS'
p1238
sS'PA446380'
p1239
S'Feline Infectious Peritonitis'
p1240
sS'PA446381'
p1241
S'Caroli Disease'
p1242
sS'PA165108151'
p1243
S'Post-pericardiotomy syndrome'
p1244
sS'PA165108150'
p1245
S'Hereditary factor V deficiency disease'
p1246
sS'PA443945'
p1247
S'Duodenal Ulcer'
p1248
sS'PA165108798'
p1249
S'Chorea gravidarum'
p1250
sS'PA443940'
p1251
S'Ductus Arteriosus, Patent'
p1252
sS'PA443942'
p1253
S'Duodenal Diseases'
p1254
sS'PA165108791'
p1255
S'Brainstem infarction NOS'
p1256
sS'PA165108790'
p1257
S'Persistent hyperplasia of thymus'
p1258
sS'PA165108793'
p1259
S'Affective personality disorder NOS'
p1260
sS'PA165108792'
p1261
S'Transsexualism NOS'
p1262
sS'PA165108795'
p1263
S'Enzootic pneumonia of calves'
p1264
sS'PA165108794'
p1265
S'Cat scratch disease'
p1266
sS'PA165108797'
p1267
S'Hypo-beta-lipoproteinemia'
p1268
sS'PA445018'
p1269
S'Cardiomyopathies'
p1270
sS'PA446148'
p1271
S'Panniculitis'
p1272
sS'PA444401'
p1273
S'Hemianopsia'
p1274
sS'PA444400'
p1275
S'Hematuria'
p1276
sS'PA444403'
p1277
S'Hemiplegia'
p1278
sS'PA444405'
p1279
S'Hemochromatosis'
p1280
sS'PA444409'
p1281
S'Hemoglobinuria'
p1282
sS'PA444408'
p1283
S'Hemoglobinopathies'
p1284
sS'PA165108398'
p1285
S'Sturge-Weber syndrome'
p1286
sS'PA443839'
p1287
S'De Lange Syndrome'
p1288
sS'PA443838'
p1289
S'Dandy-Walker Syndrome'
p1290
sS'PA446493'
p1291
S'Hyperkeratosis, Epidermolytic'
p1292
sS'PA446494'
p1293
S'Ichthyosis, Lamellar'
p1294
sS'PA165108578'
p1295
S'Cerebral cysticercosis'
p1296
sS'PA446496'
p1297
S'Hyperpigmentation'
p1298
sS'PA446497'
p1299
S'Hypopigmentation'
p1300
sS'PA165108575'
p1301
S'Unspecified histrionic personality disorder'
p1302
sS'PA165108574'
p1303
S'Neovascular glaucoma'
p1304
sS'PA443833'
p1305
S'Cystitis'
p1306
sS'PA443832'
p1307
S'Cystinuria'
p1308
sS'PA443835'
p1309
S'Cysts'
p1310
sS'PA165108570'
p1311
S'Anterior acute poliomyelitis'
p1312
sS'PA165108573'
p1313
S'Biliary tract disorders NOS'
p1314
sS'PA443836'
p1315
S'Cytomegalovirus Infections'
p1316
sS'PA443549'
p1317
S'Brain Abscess'
p1318
sS'PA443548'
p1319
S'Bradycardia'
p1320
sS'PA445287'
p1321
S'Pericardial Effusion'
p1322
sS'PA445288'
p1323
S'Pericarditis'
p1324
sS'PA446254'
p1325
S'Choroid Diseases'
p1326
sS'PA443542'
p1327
S'Borna Disease'
p1328
sS'PA446253'
p1329
S'Retinal Neovascularization'
p1330
sS'PA165108979'
p1331
S'Polyneuropathy, organomegaly, endocrinopathy, monoclonal gammopathy, and skin changes'
p1332
sS'PA165108978'
p1333
S'Tuberculous abscess of brain'
p1334
sS'PA445048'
p1335
S'Nausea'
p1336
sS'PA445046'
p1337
S'Nasopharyngeal Neoplasms'
p1338
sS'PA165108970'
p1339
S'Epididymitis unspecified'
p1340
sS'PA165108973'
p1341
S'Hemorrhagic disease of the newborn due to vitamin K deficiency'
p1342
sS'PA165108972'
p1343
S'Meningoencephalitis due to acquired toxoplasmosis'
p1344
sS'PA445042'
p1345
S'Narcolepsy'
p1346
sS'PA165108974'
p1347
S'Hebephrenic schizophrenia NOS'
p1348
sS'PA165108977'
p1349
S'Fatal familial insomnia'
p1350
sS'PA165108976'
p1351
S'Haemangiopericytoma'
p1352
sS'PA446031'
p1353
S'Vertigo'
p1354
sS'PA165108377'
p1355
S'Lymphoid leukemia NOS'
p1356
sS'PA165108376'
p1357
S'Chronic phase chronic myeloid leukaemia'
p1358
sS'PA165108375'
p1359
S"Vincent's infection"
p1360
sS'PA165108374'
p1361
S'Megakaryocytic leukaemia'
p1362
sS'PA443729'
p1363
S'Chromosome Deletion'
p1364
sS'PA443728'
p1365
S'Chromosome Aberrations'
p1366
sS'PA165108371'
p1367
S'Femoral hernia NOS'
p1368
sS'PA165108370'
p1369
S'Wolff-Parkinson-White pattern'
p1370
sS'PA443726'
p1371
S'Hemophilia B'
p1372
sS'PA443720'
p1373
S'Choriocarcinoma'
p1374
sS'PA165108379'
p1375
S'Queensland tick typhus'
p1376
sS'PA165108378'
p1377
S'Double Y syndrome'
p1378
sS'PA166048719'
p1379
S'Gram-Positive Bacterial Infections'
p1380
sS'PA447295'
p1381
S'Malignant tumor of peritoneum'
p1382
sS'PA446668'
p1383
S'Neoplasms, Basal Cell'
p1384
sS'PA446663'
p1385
S'Cervical Intraepithelial Neoplasia'
p1386
sS'PA446661'
p1387
S'Carcinoma, Small Cell'
p1388
sS'PA446660'
p1389
S'Carcinoma, Large Cell'
p1390
sS'PA165108209'
p1391
S'Syndrome of apparent mineralocorticoid excess'
p1392
sS'PA165108208'
p1393
S'Rickettsial pneumonia'
p1394
sS'PA165108203'
p1395
S'Pure gonadal dysgenesis 46,XY'
p1396
sS'PA165108202'
p1397
S'Calcaneal spur'
p1398
sS'PA165108201'
p1399
S'Unspecified yaws'
p1400
sS'PA165108200'
p1401
S'Unspecified illegal abortion NOS'
p1402
sS'PA165108207'
p1403
S'Meningococcal infection NOS'
p1404
sS'PA165108206'
p1405
S'Postoperative wound breakdown'
p1406
sS'PA165108205'
p1407
S'Pityriasis rosea'
p1408
sS'PA444963'
p1409
S'Monsters'
p1410
sS'PA443611'
p1411
S'Carcinoma in Situ'
p1412
sS'PA443610'
p1413
S'Carcinoma'
p1414
sS'PA443613'
p1415
S'Carcinoma, Basal Cell'
p1416
sS'PA443615'
p1417
S'Adenocarcinoma, Bronchiolo-Alveolar'
p1418
sS'PA443616'
p1419
S'Carcinoma, Bronchogenic'
p1420
sS'PA443619'
p1421
S'Carcinoma, Ehrlich Tumor'
p1422
sS'PA443618'
p1423
S'Carcinoma, Intraductal, Noninfiltrating'
p1424
sS'PA444398'
p1425
S'Hematoma, Subdural'
p1426
sS'PA444390'
p1427
S'Hemangiosarcoma'
p1428
sS'PA444392'
p1429
S'Hematemesis'
p1430
sS'PA444395'
p1431
S'Hematologic Diseases'
p1432
sS'PA444397'
p1433
S'Epidural hematoma'
p1434
sS'PA444396'
p1435
S'Hematoma'
p1436
sS'PA445862'
p1437
S'Thyrotoxicosis'
p1438
sS'PA445864'
p1439
S'Tic Disorders'
p1440
sS'PA152246680'
p1441
S'Nonsyndromic Enlargement of Vestibular Aqueduct'
p1442
sS'PA446713'
p1443
S'Neuroendocrine Tumors'
p1444
sS'PA446717'
p1445
S'Cardiovascular Abnormalities'
p1446
sS'PA162370428'
p1447
S'Methylmalonic acidemia'
p1448
sS'PA446719'
p1449
S'Isochromosomes'
p1450
sS'PA446714'
p1451
S'Neoplasm, Residual'
p1452
sS'PA165108559'
p1453
S'Unverricht-Lundborg syndrome'
p1454
sS'PA165108558'
p1455
S'Orchitis unspecified'
p1456
sS'PA446350'
p1457
S'Leukemia, Feline'
p1458
sS'PA443798'
p1459
S'Coronary Thrombosis'
p1460
sS'PA443799'
p1461
S'Coronary Vasospasm'
p1462
sS'PA446718'
p1463
S'Thyroid Hormone Resistance Syndrome'
p1464
sS'PA165108910'
p1465
S'Sinus histiocytosis with massive lymphadenopathy'
p1466
sS'PA165109050'
p1467
S'Stokes-Adams-Morgagni syndrome'
p1468
sS'PA165108552'
p1469
S'Unspecified conjunctivitis'
p1470
sS'PA165108418'
p1471
S'Infectious bovine rhinotracheitis'
p1472
sS'PA165108419'
p1473
S'Feet deformities NOS'
p1474
sS'PA444242'
p1475
S'Gallbladder Neoplasms'
p1476
sS'PA444241'
p1477
S'Gallbladder Diseases'
p1478
sS'PA444240'
p1479
S'Galactosemias'
p1480
sS'PA444246'
p1481
S'Gardner Syndrome'
p1482
sS'PA444245'
p1483
S'Gangrene'
p1484
sS'PA165108556'
p1485
S"Tietze's disease"
p1486
sS'PA446356'
p1487
S'Thyroid Nodule'
p1488
sS'PA446805'
p1489
S'Postoperative Hemorrhage'
p1490
sS'PA446803'
p1491
S'Cafe-au-Lait Spots'
p1492
sS'PA446802'
p1493
S'Facies'
p1494
sS'PA162370426'
p1495
S'Propionic acidemia'
p1496
sS'PA443813'
p1497
S'Crigler-Najjar Syndrome'
p1498
sS'PA443812'
p1499
S'Cri-du-Chat Syndrome'
p1500
sS'PA136400566'
p1501
S'Severe Acute Respiratory Syndrome'
p1502
sS'PA443811'
p1503
S'Congenital Hypothyroidism'
p1504
sS'PA152545827'
p1505
S'Cartilage Hair Hypoplasia'
p1506
sS'PA445448'
p1507
S'Pseudorabies'
p1508
sS'PA443810'
p1509
S'Craniosynostoses'
p1510
sS'PA445442'
p1511
S'Pseudohypoaldosteronism'
p1512
sS'PA446375'
p1513
S'Antiphospholipid Syndrome'
p1514
sS'PA445440'
p1515
S'Pseudarthrosis'
p1516
sS'PA445441'
p1517
S'Pseudohermaphroditism'
p1518
sS'PA445446'
p1519
S'Pseudopregnancy'
p1520
sS'PA152545828'
p1521
S'Anauxetic Dysplasia'
p1522
sS'PA443816'
p1523
S'Cross Infection'
p1524
sS'PA445566'
p1525
S'Rickets'
p1526
sS'PA446377'
p1527
S'Stiff-Person Syndrome'
p1528
sS'PA447148'
p1529
S'Hermanski-Pudlak Syndrome'
p1530
sS'PA151958383'
p1531
S'Gastrointestinal Stromal Tumors'
p1532
sS'PA445263'
p1533
S'Parvoviridae Infections'
p1534
sS'PA165109163'
p1535
S'Scleromyxedema'
p1536
sS'PA165109039'
p1537
S'Vertebrobasilar artery syndrome'
p1538
sS'PA165109038'
p1539
S'Schistosoma haematobium infection'
p1540
sS'PA165109037'
p1541
S'Gingival recession NOS'
p1542
sS'PA165109036'
p1543
S'Diabetes mellitus NOS with unspecified complication'
p1544
sS'PA165109035'
p1545
S'Lymphangioma of unspecified site'
p1546
sS'PA165109034'
p1547
S'Psychosomatic disorder NOS'
p1548
sS'PA165109033'
p1549
S'Abducens nerve weakness'
p1550
sS'PA165109032'
p1551
S'Amoebic liver abscess'
p1552
sS'PA165109031'
p1553
S"Fisher's syndrome"
p1554
sS'PA165109030'
p1555
S'Bursitis NOS'
p1556
sS'PA445707'
p1557
S'Spinal Cord Diseases'
p1558
sS'PA445701'
p1559
S'Speech Disorders'
p1560
sS'PA445700'
p1561
S'Spasms, Infantile'
p1562
sS'PA445265'
p1563
S'Pathologic Processes'
p1564
sS'PA444650'
p1565
S'Jaundice, Neonatal'
p1566
sS'PA445708'
p1567
S'Spinal Cord Injuries'
p1568
sS'PA444652'
p1569
S'Jaw Cysts'
p1570
sS'PA444098'
p1571
S'Esophageal Diseases'
p1572
sS'PA445511'
p1573
S'Refsum Disease'
p1574
sS'PA444090'
p1575
S'Leukemia, Erythroblastic, Acute'
p1576
sS'PA444096'
p1577
S'Esophageal Atresia'
p1578
sS'PA444095'
p1579
S'Esophageal and Gastric Varices'
p1580
sS'PA166048852'
p1581
S'Spondylolysis'
p1582
sS'PA166048853'
p1583
S'Spinal Cord Neoplasms'
p1584
sS'PA166048850'
p1585
S'Soft Tissue Neoplasms'
p1586
sS'PA166048851'
p1587
S'Purpura, Thrombocytopenic, Idiopathic'
p1588
sS'PA166048856'
p1589
S'Myelitis, Transverse'
p1590
sS'PA166048857'
p1591
S'Alcohol-Induced Disorders, Nervous System'
p1592
sS'PA166048854'
p1593
S'Pain, Intractable'
p1594
sS'PA166048855'
p1595
S'Spinal Cord Ischemia'
p1596
sS'PA166048858'
p1597
S'Red-Cell Aplasia, Pure'
p1598
sS'PA166048859'
p1599
S'Cystinosis'
p1600
sS'PA445967'
p1601
S'Tumor Virus Infections'
p1602
sS'PA446068'
p1603
S'Werner Syndrome'
p1604
sS'PA160680212'
p1605
S'Lymphoma, Large B-Cell, Diffuse'
p1606
sS'PA445757'
p1607
S'Stuttering'
p1608
sS'PA446061'
p1609
S'Warts'
p1610
sS'PA446060'
p1611
S'Wallerian Degeneration'
p1612
sS'PA446065'
p1613
S'Wegener Granulomatosis'
p1614
sS'PA446067'
p1615
S'Spinal Muscular Atrophies of Childhood'
p1616
sS'PA446066'
p1617
S'Weil Disease'
p1618
sS'PA165109143'
p1619
S'Tricuspid valve prolapse'
p1620
sS'PA445678'
p1621
S'Skin Diseases, Genetic'
p1622
sS'PA162372591'
p1623
S'Cowden-like Syndrome'
p1624
sS'PA165109140'
p1625
S'Pasteurellosis NOS'
p1626
sS'PA165109147'
p1627
S'Endocrine disorder NOS'
p1628
sS'PA165109146'
p1629
S'Shell teeth'
p1630
sS'PA165109145'
p1631
S'Parapsoriasis NOS'
p1632
sS'PA165109144'
p1633
S'Orbital cellulitis'
p1634
sS'PA445671'
p1635
S'Sinus Thrombosis, Intracranial'
p1636
sS'PA165109149'
p1637
S'Exstrophy of urinary bladder NOS'
p1638
sS'PA165109148'
p1639
S'Joint effusion of unspecified site'
p1640
sS'PA445675'
p1641
S'Skin Abnormalities'
p1642
sS'PA445674'
p1643
S"Sjogren's Syndrome"
p1644
sS'PA445676'
p1645
S'Skin Diseases'
p1646
sS'PA165108816'
p1647
S'Hemobilia'
p1648
sS'PA165108817'
p1649
S'Protein-calorie malnutrition NOS'
p1650
sS'PA165108814'
p1651
S'Drug interaction with food'
p1652
sS'PA165108815'
p1653
S'Neurogenic bowel'
p1654
sS'PA165108812'
p1655
S'Hypertrophic cicatrix'
p1656
sS'PA165108813'
p1657
S'Tubal pregnancy NOS'
p1658
sS'PA165108810'
p1659
S'Acute cholecystitis NOS'
p1660
sS'PA165108811'
p1661
S'Accelerated phase chronic myeloid leukemia'
p1662
sS'PA165108818'
p1663
S'Paranoid schizophrenia NOS'
p1664
sS'PA165108819'
p1665
S'Diseases of lips NOS'
p1666
sS'PA165108148'
p1667
S'African swine fever'
p1668
sS'PA165108149'
p1669
S'Coxsackie viral diseases NOS'
p1670
sS'PA165108144'
p1671
S'Middle lobe syndrome'
p1672
sS'PA165108145'
p1673
S"Melkersson's syndrome"
p1674
sS'PA165108146'
p1675
S'Sebaceous adenocarcinoma'
p1676
sS'PA165108147'
p1677
S'Alveolar soft part sarcoma'
p1678
sS'PA165108140'
p1679
S'Bronchiolitis fibrosa obliterans'
p1680
sS'PA165108141'
p1681
S'Hemarthrosis NOS'
p1682
sS'PA165108142'
p1683
S'Hepatopulmonary syndrome'
p1684
sS'PA446390'
p1685
S'Malaria, Falciparum'
p1686
sS'PA165108788'
p1687
S'Dacryocystitis NOS'
p1688
sS'PA165108789'
p1689
S'Epididymitis NOS'
p1690
sS'PA165108786'
p1691
S'Myelophthisic anaemia'
p1692
sS'PA165108787'
p1693
S'AV nodal re-entry tachycardia'
p1694
sS'PA165108784'
p1695
S'Deficiency of 1,4-alpha-glucan branching enzyme'
p1696
sS'PA165108785'
p1697
S'Necrosis of the pulp NOS'
p1698
sS'PA165108782'
p1699
S'Salpingitis unspecified'
p1700
sS'PA165108783'
p1701
S'Unspecified injury of wrist'
p1702
sS'PA165108780'
p1703
S'Familial benign pemphigus'
p1704
sS'PA165108781'
p1705
S'Edema of larynx NOS'
p1706
sS'PA166120929'
p1707
S'severe cutaneous adverse reactions'
p1708
sS'PA166120928'
p1709
S'erythema exudativum multiforme'
p1710
sS'PA166123766'
p1711
S'platelet aggregation'
p1712
sS'PA444476'
p1713
S'Hip Fractures'
p1714
sS'PA444477'
p1715
S'von Hippel-Lindau Disease'
p1716
sS'PA444478'
p1717
S'Hirschsprung Disease'
p1718
sS'PA444479'
p1719
S'Hirsutism'
p1720
sS'PA152207461'
p1721
S'Fragile X-associated Tremor/Ataxia Syndrome'
p1722
sS'PA165108562'
p1723
S'Congenital choledochal cyst'
p1724
sS'PA446482'
p1725
S'Skin and Connective Tissue Diseases'
p1726
sS'PA446481'
p1727
S'Kallmann Syndrome'
p1728
sS'PA446480'
p1729
S'Hypertrophy, Right Ventricular'
p1730
sS'PA443848'
p1731
S'Deficiency Diseases'
p1732
sS'PA443849'
p1733
S'Deglutition Disorders'
p1734
sS'PA165108564'
p1735
S'Liveborn with birth asphyxia NOS'
p1736
sS'PA165108565'
p1737
S'Postphlebitic syndrome'
p1738
sS'PA162372765'
p1739
S'Woodhouse-Sakati Syndrome'
p1740
sS'PA165108568'
p1741
S'Empty sella syndrome'
p1742
sS'PA446488'
p1743
S'Dermatitis, Allergic Contact'
p1744
sS'PA443840'
p1745
S'Deafness'
p1746
sS'PA443842'
p1747
S'Death'
p1748
sS'PA443843'
p1749
S'Death, Sudden'
p1750
sS'PA445293'
p1751
S'Familial Mediterranean Fever'
p1752
sS'PA446240'
p1753
S'Langer-Giedion Syndrome'
p1754
sS'PA443538'
p1755
S'Bone Neoplasms'
p1756
sS'PA443539'
p1757
S'Bone Resorption'
p1758
sS'PA446246'
p1759
S'Ocular Motility Disorders'
p1760
sS'PA443536'
p1761
S'Bone Diseases, Metabolic'
p1762
sS'PA445298'
p1763
S'Periodontitis'
p1764
sS'PA443530'
p1765
S'Body Weight Changes'
p1766
sS'PA443531'
p1767
S'Bone Cysts'
p1768
sS'PA443532'
p1769
S'Bone Diseases'
p1770
sS'PA443533'
p1771
S'Bone Diseases, Developmental'
p1772
sS'PA445051'
p1773
S'Necrosis'
p1774
sS'PA444509'
p1775
S'Hyperaldosteronism'
p1776
sS'PA445053'
p1777
S'Nematode Infections'
p1778
sS'PA445055'
p1779
S'Congenital, Hereditary, and Neonatal Diseases and Abnormalities'
p1780
sS'PA445057'
p1781
S'Neoplasm Invasiveness'
p1782
sS'PA165108969'
p1783
S'Fukuhara syndrome'
p1784
sS'PA165108966'
p1785
S'Naevus of Ota'
p1786
sS'PA165108967'
p1787
S'Eunuchism'
p1788
sS'PA165108964'
p1789
S'Avian tuberculosis'
p1790
sS'PA165108965'
p1791
S'Corneal disorder NOS'
p1792
sS'PA444504'
p1793
S'Hydronephrosis'
p1794
sS'PA165108963'
p1795
S'Acute bovine pulmonary emphysema AND edema'
p1796
sS'PA165108960'
p1797
S'Tuberculosis cutis indurativa'
p1798
sS'PA165108961'
p1799
S'Disseminated idiopathic skeletal hyperostosis'
p1800
sS'PA165108364'
p1801
S'Gestational hypertension'
p1802
sS'PA165108365'
p1803
S'Criss-cross heart'
p1804
sS'PA165108366'
p1805
S'Swine vesicular disease'
p1806
sS'PA446264'
p1807
S'Urinary Retention'
p1808
sS'PA443286'
p1809
S'Adrenal Hyperplasia, Congenital'
p1810
sS'PA165108361'
p1811
S'Histrionic personality disorder NOS'
p1812
sS'PA165108362'
p1813
S'Congenital cystic adenomatoid malformation of lung'
p1814
sS'PA165108363'
p1815
S'Coffin-Lowry syndrome'
p1816
sS'PA447286'
p1817
S'visceral obesity'
p1818
sS'PA443288'
p1819
S'Adrenoleukodystrophy'
p1820
sS'PA447322'
p1821
S'therapy-related acute myeloid leukemia (t-ML)'
p1822
sS'PA165108368'
p1823
S'Unspecified osteomyelitis NOS'
p1824
sS'PA447283'
p1825
S'glomerular disease'
p1826
sS'PA447281'
p1827
S"Gilbert's syndrome"
p1828
sS'PA443442'
p1829
S'Ascites'
p1830
sS'PA443444'
p1831
S'Aspergillosis'
p1832
sS'PA443445'
p1833
S'Aspergillosis, Allergic Bronchopulmonary'
p1834
sS'PA443446'
p1835
S'Asphyxia'
p1836
sS'PA443448'
p1837
S'Asthenia'
p1838
sS'PA443997'
p1839
S'Ehlers-Danlos Syndrome'
p1840
sS'PA443994'
p1841
S'Edema'
p1842
sS'PA443992'
p1843
S'Ectropion'
p1844
sS'PA443993'
p1845
S'Eczema'
p1846
sS'PA443990'
p1847
S'Ectromelia'
p1848
sS'PA443269'
p1849
S'Adenoma'
p1850
sS'PA165108298'
p1851
S'Unspecified dacryocystitis'
p1852
sS'PA443262'
p1853
S'Acute-Phase Reaction'
p1854
sS'PA443264'
p1855
S'Addison Disease'
p1856
sS'PA443265'
p1857
S'Adenocarcinoma'
p1858
sS'PA443266'
p1859
S'Adenocarcinoma, Papillary'
p1860
sS'PA446651'
p1861
S'Carcinoma, Neuroendocrine'
p1862
sS'PA446656'
p1863
S'Cystadenocarcinoma, Papillary'
p1864
sS'PA446657'
p1865
S'Cystadenocarcinoma, Serous'
p1866
sS'PA446654'
p1867
S'Cholangiocarcinoma'
p1868
sS'PA446655'
p1869
S'Cystadenocarcinoma, Mucinous'
p1870
sS'PA447013'
p1871
S'Optic Nerve Glioma'
p1872
sS'PA165108482'
p1873
S'Paratyphoid fever NOS'
p1874
sS'PA165108218'
p1875
S'Tuberculoma of brain'
p1876
sS'PA165108219'
p1877
S'Pityriasis versicolor'
p1878
sS'PA445481'
p1879
S'Purpura, Thrombotic Thrombocytopenic'
p1880
sS'PA447158'
p1881
S'Tauopathies'
p1882
sS'PA165108210'
p1883
S'Disease of spleen unspecified'
p1884
sS'PA165108211'
p1885
S'Oral tuberculosis'
p1886
sS'PA165108212'
p1887
S'Pyogenic hepatic abscess'
p1888
sS'PA165108213'
p1889
S'Equine infectious anemia'
p1890
sS'PA165108214'
p1891
S'Postcardiotomy syndrome'
p1892
sS'PA165108215'
p1893
S'Hemarthrosis of unspecified site'
p1894
sS'PA165108216'
p1895
S'Toxoplasma encephalitis'
p1896
sS'PA165108217'
p1897
S'Water intoxication syndrome'
p1898
sS'PA444892'
p1899
S'Meconium Aspiration Syndrome'
p1900
sS'PA443665'
p1901
S'Intracranial Arteriosclerosis'
p1902
sS'PA443666'
p1903
S'Intracranial Arteriovenous Malformations'
p1904
sS'PA444891'
p1905
S'Meckel Diverticulum'
p1906
sS'PA443660'
p1907
S'Cerebellar Diseases'
p1908
sS'PA443663'
p1909
S'Intracranial Aneurysm'
p1910
sS'PA444898'
p1911
S'Medulloblastoma'
p1912
sS'PA444899'
p1913
S'Megacolon'
p1914
sS'PA443669'
p1915
S'Cerebral Hemorrhage'
p1916
sS'PA447155'
p1917
S'Uniparental Disomy'
p1918
sS'PA165108258'
p1919
S'Vasoactive intestinal peptide-secreting tumour'
p1920
sS'PA131285571'
p1921
S'aspirin-induced asthma'
p1922
sS'PA445876'
p1923
S'Tobacco Use Disorder'
p1924
sS'PA445875'
p1925
S'Tinnitus'
p1926
sS'PA152246679'
p1927
S"Pendred's syndrome"
p1928
sS'PA444875'
p1929
S'Mannosidosis'
p1930
sS'PA446726'
p1931
S'Blue Toe Syndrome'
p1932
sS'PA446727'
p1933
S'Lymphoma, B-Cell, Marginal Zone'
p1934
sS'PA446721'
p1935
S'Pneumonia, Bacterial'
p1936
sS'PA446728'
p1937
S'Disease Progression'
p1938
sS'PA446729'
p1939
S'Protein S Deficiency'
p1940
sS'PA154400823'
p1941
S'post-orthopedic'
p1942
sS'PA152241953'
p1943
S'Encephalopathy, Infantile'
p1944
sS'PA152241952'
p1945
S'Congenital diaphragmatic hernia'
p1946
sS'PA445100'
p1947
S'Neuroblastoma'
p1948
sS'PA446838'
p1949
S'Vaginal Discharge'
p1950
sS'PA445954'
p1951
S'Tuberculosis, Miliary'
p1952
sS'PA444278'
p1953
S'Gingivitis'
p1954
sS'PA444276'
p1955
S'Gingival Pocket'
p1956
sS'PA446833'
p1957
S'Pouchitis'
p1958
sS'PA446836'
p1959
S'Craniofacial Abnormalities'
p1960
sS'PA444273'
p1961
S'Gingival Hyperplasia'
p1962
sS'PA446834'
p1963
S'Chromosome Breakage'
p1964
sS'PA446835'
p1965
S'Syncope, Vasovagal'
p1966
sS'PA445449'
p1967
S'Pseudotumor Cerebri'
p1968
sS'PA445109'
p1969
S'Neuromyelitis Optica'
p1970
sS'PA445108'
p1971
S'Neuromuscular Diseases'
p1972
sS'PA445459'
p1973
S'Puberty, Precocious'
p1974
sS'PA445458'
p1975
S'Puberty, Delayed'
p1976
sS'PA445443'
p1977
S'Pseudohypoparathyroidism'
p1978
sS'PA445903'
p1979
S'Toxoplasmosis'
p1980
sS'PA445454'
p1981
S'Psychophysiologic Disorders'
p1982
sS'PA166123555'
p1983
S'neutropenic sepsis'
p1984
sS'PA166123554'
p1985
S'anaphylactoid reaction'
p1986
sS'PA445451'
p1987
S'Psoriasis'
p1988
sS'PA445450'
p1989
S'Pseudoxanthoma Elasticum'
p1990
sS'PA445452'
p1991
S'Psychomotor Agitation'
p1992
sS'PA166048913'
p1993
S'Female Gender'
p1994
sS'PA166048912'
p1995
S'Head Injuries, Closed'
p1996
sS'PA166048911'
p1997
S'Causalgia'
p1998
sS'PA166048910'
p1999
S'Leukemia, Basophilic, Acute'
p2000
sS'PA166048917'
p2001
S'Enteritis'
p2002
sS'PA166048916'
p2003
S'Proctocolitis'
p2004
sS'PA166048915'
p2005
S'Dystonia'
p2006
sS'PA166048914'
p2007
S'Conjunctivitis, Acute Hemorrhagic'
p2008
sS'PA445914'
p2009
S'Translocation, Genetic'
p2010
sS'PA166048919'
p2011
S'Pregnancy Complications, Hematologic'
p2012
sS'PA166048918'
p2013
S'Discrete Subaortic Stenosis'
p2014
sS'PA446907'
p2015
S'Citrullinemia'
p2016
sS'PA445445'
p2017
S'Pseudomyxoma Peritonei'
p2018
sS'PA444937'
p2019
S'Mesothelioma'
p2020
sS'PA446900'
p2021
S'Coagulation Protein Disorders'
p2022
sS'PA151958591'
p2023
S'Esophogeal Neoplasms'
p2024
sS'PA165109028'
p2025
S'Infection by Setaria'
p2026
sS'PA165109029'
p2027
S'Sialoadenitis NOS'
p2028
sS'PA165109024'
p2029
S'Scimitar syndrome'
p2030
sS'PA165109025'
p2031
S'Dens in dente'
p2032
sS'PA165109026'
p2033
S'Spinal stenosis NOS'
p2034
sS'PA165109027'
p2035
S'Sudden hearing loss'
p2036
sS'PA165109020'
p2037
S'Merkel cell carcinoma'
p2038
sS'PA165109021'
p2039
S'Congenital ichthyosiform erythroderma'
p2040
sS'PA165109022'
p2041
S'Choroiditis NOS'
p2042
sS'PA165109023'
p2043
S'Cestode infection NOS'
p2044
sS'PA162355520'
p2045
S'nephrolithiasis'
p2046
sS'PA444649'
p2047
S'Jaundice, Chronic Idiopathic'
p2048
sS'PA444648'
p2049
S'Jaundice'
p2050
sS'PA444647'
p2051
S'Creutzfeldt-Jakob Syndrome'
p2052
sS'PA444646'
p2053
S'Adenoma, Islet Cell'
p2054
sS'PA444645'
p2055
S'Ischemia'
p2056
sS'PA444642'
p2057
S'Inversion (Genetics)'
p2058
sS'PA444641'
p2059
S'Intussusception'
p2060
sS'PA444640'
p2061
S'Intraoperative Complications'
p2062
sS'PA165110266'
p2063
S'Posterior Cortical Atrophy'
p2064
sS'PA444086'
p2065
S'Erythema Nodosum'
p2066
sS'PA444083'
p2067
S'Erythema'
p2068
sS'PA166048827'
p2069
S'Central Nervous System Bacterial Infections'
p2070
sS'PA166048826'
p2071
S'Premenstrual Syndrome'
p2072
sS'PA166048825'
p2073
S'Tinea Capitis'
p2074
sS'PA444837'
p2075
S'Lymphocytic Choriomeningitis'
p2076
sS'PA166048823'
p2077
S'Toddler'
p2078
sS'PA166048822'
p2079
S'Actinomycetales Infections'
p2080
sS'PA166048821'
p2081
S'Enterocolitis, Pseudomembranous'
p2082
sS'PA166048820'
p2083
S'Frostbite'
p2084
sS'PA166048829'
p2085
S'Elderly Adult'
p2086
sS'PA166048828'
p2087
S'Inert Gas Narcosis'
p2088
sS'PA446018'
p2089
S'Varicocele'
p2090
sS'PA446010'
p2091
S'Uveitis'
p2092
sS'PA446013'
p2093
S'Vaccinia'
p2094
sS'PA165109150'
p2095
S'Pulpitis NOS'
p2096
sS'PA165109151'
p2097
S'Sore on skin'
p2098
sS'PA165109152'
p2099
S'Injury due to explosion'
p2100
sS'PA165109153'
p2101
S'Sick-euthyroid syndrome'
p2102
sS'PA165109154'
p2103
S'Hydropneumothorax'
p2104
sS'PA165109155'
p2105
S'Aniseikonia'
p2106
sS'PA165109156'
p2107
S'Tongue diseases NOS'
p2108
sS'PA165109157'
p2109
S'Sinus pericranii'
p2110
sS'PA445604'
p2111
S'Scabies'
p2112
sS'PA164924608'
p2113
S'Acute Necrotizing Encephalopathy'
p2114
sS'PA445607'
p2115
S'Scheuermann Disease'
p2116
sS'PA445600'
p2117
S'Mast-Cell Sarcoma'
p2118
sS'PA445601'
p2119
S'Osteosarcoma'
p2120
sS'PA446602'
p2121
S'Histiocytoma, Benign Fibrous'
p2122
sS'PA447211'
p2123
S'Obsessive-Compulsive Disorder'
p2124
sS'PA447210'
p2125
S'Neurotic Disorders'
p2126
sS'PA447213'
p2127
S'Personality Disorders'
p2128
sS'PA165108171'
p2129
S'Disorder of lipoid metabolism NOS'
p2130
sS'PA165108170'
p2131
S'Hypersensitivity angiitis NOS'
p2132
sS'PA165108173'
p2133
S'Aleutian disease'
p2134
sS'PA165108172'
p2135
S'Hajdu-Cheney syndrome'
p2136
sS'PA165108175'
p2137
S'High density lipoid deficiency'
p2138
sS'PA165108174'
p2139
S'Subacute bacterial endocarditis'
p2140
sS'PA165108177'
p2141
S'Dyshidrosis NOS'
p2142
sS'PA165108176'
p2143
S'Transvestism'
p2144
sS'PA165108179'
p2145
S'Rhesus isoimmunization NOS'
p2146
sS'PA447215'
p2147
S'Psychotic Disorders'
p2148
sS'PA161614136'
p2149
S'Lumbar Disc Herniation'
p2150
sS'PA165108930'
p2151
S'Retained products after spontaneous abortion'
p2152
sS'PA446120'
p2153
S'Hypertriglyceridemia'
p2154
sS'PA165108772'
p2155
S'Giant lymph node hyperplasia'
p2156
sS'PA165108771'
p2157
S'Louping ill'
p2158
sS'PA165108770'
p2159
S'Psychologic vaginismus'
p2160
sS'PA165108777'
p2161
S'Hepatic glycogen phosphorylase kinase deficiency'
p2162
sS'PA165108776'
p2163
S'Infiltrating duct carcinoma of breast'
p2164
sS'PA165108775'
p2165
S'Infection by Legionella pneumophilia'
p2166
sS'PA165108774'
p2167
S'Relapsing fever NOS'
p2168
sS'PA165108779'
p2169
S'Migraine NOS'
p2170
sS'PA165108778'
p2171
S'Ornithine carbamoyltransferase deficiency'
p2172
sS'PA445110'
p2173
S'Neuronal Ceroid-Lipofuscinoses'
p2174
sS'PA445111'
p2175
S'Hereditary Sensory and Autonomic Neuropathies'
p2176
sS'PA445112'
p2177
S'Neurosyphilis'
p2178
sS'PA445113'
p2179
S'Neutropenia'
p2180
sS'PA445114'
p2181
S'Nevus'
p2182
sS'PA445116'
p2183
S'Nevus, Pigmented'
p2184
sS'PA445117'
p2185
S'Newcastle Disease'
p2186
sS'PA165108109'
p2187
S'Liver echinococcus unspecified'
p2188
sS'PA444466'
p2189
S'Herpes Zoster'
p2190
sS'PA444465'
p2191
S'Herpes Simplex'
p2192
sS'PA444460'
p2193
S'Heroin Dependence'
p2194
sS'PA165108500'
p2195
S'Hypertension of pregnancy NOS'
p2196
sS'PA445133'
p2197
S'Obesity, Morbid'
p2198
sS'PA165109136'
p2199
S'Meige syndrome'
p2200
sS'PA444856'
p2201
S'Magnesium Deficiency'
p2202
sS'PA164924611'
p2203
S'Partial congenital absence of teeth'
p2204
sS'PA165108517'
p2205
S'Chlorine acne'
p2206
sS'PA165108516'
p2207
S'Neutropaenic enterocolitis'
p2208
sS'PA165108515'
p2209
S'Perinephritis'
p2210
sS'PA165109135'
p2211
S'Periarthritis NOS'
p2212
sS'PA165108513'
p2213
S'Conjunctival disorder NOS'
p2214
sS'PA165108512'
p2215
S"Klatskin's tumour"
p2216
sS'PA165108511'
p2217
S'Actinomycosis unspecified site NOS'
p2218
sS'PA443858'
p2219
S'Dental Caries'
p2220
sS'PA443857'
p2221
S'Dental Calculus'
p2222
sS'PA443855'
p2223
S'Dengue'
p2224
sS'PA443854'
p2225
S'Demyelinating Diseases'
p2226
sS'PA443853'
p2227
S'Dementia'
p2228
sS'PA443851'
p2229
S'Delirium'
p2230
sS'PA443850'
p2231
S'Dehydration'
p2232
sS'PA165108687'
p2233
S'Pure autonomic failure'
p2234
sS'PA165108686'
p2235
S'Ganglion unspecified'
p2236
sS'PA165108685'
p2237
S'Microstomia'
p2238
sS'PA165108684'
p2239
S'Poisoning due to venomous spider NOS'
p2240
sS'PA165108683'
p2241
S'Pyruvate dehydrogenase complex deficiency'
p2242
sS'PA165108682'
p2243
S'Kleine-Levin syndrome'
p2244
sS'PA165108681'
p2245
S'Aneurysm of iliac artery NOS'
p2246
sS'PA165108680'
p2247
S'Arterial thoracic outlet syndrome due to cervical rib'
p2248
sS'PA443527'
p2249
S'Bloom Syndrome'
p2250
sS'PA443523'
p2251
S'Blood Coagulation Disorders'
p2252
sS'PA443522'
p2253
S'Blister'
p2254
sS'PA443521'
p2255
S'Blindness'
p2256
sS'PA165108688'
p2257
S'Paranoid psychosis NOS'
p2258
sS'PA445024'
p2259
S'Myoglobinuria'
p2260
sS'PA165108992'
p2261
S'Acquired immune deficiency syndrome-related complex'
p2262
sS'PA165108991'
p2263
S'Appendicitis NOS'
p2264
sS'PA165108990'
p2265
S'Appendicitis, unqualified'
p2266
sS'PA165108997'
p2267
S'Blastocystis hominis infection'
p2268
sS'PA165108996'
p2269
S'Cholangioadenoma'
p2270
sS'PA165108995'
p2271
S'Mulibrey nanism syndrome'
p2272
sS'PA165108994'
p2273
S'Genital herpes unspecified'
p2274
sS'PA444513'
p2275
S'Hypercalcemia'
p2276
sS'PA444512'
p2277
S'Hyperbilirubinemia, Hereditary'
p2278
sS'PA165108999'
p2279
S'Familial partial lipodystrophy'
p2280
sS'PA165108998'
p2281
S'Familial hypokalemia-hypomagnesemia'
p2282
sS'PA444517'
p2283
S'Hyperlipoproteinemia Type II'
p2284
sS'PA444516'
p2285
S'Hypercholesterolemia'
p2286
sS'PA447279'
p2287
S'Rhinitis, Allergic, Seasonal'
p2288
sS'PA165108694'
p2289
S'Trigeminal neuralgia [no drugs here]'
p2290
sS'PA443513'
p2291
S'Urinary Bladder, Neurogenic'
p2292
sS'PA445958'
p2293
S'Peritonitis, Tuberculous'
p2294
sS'PA165108696'
p2295
S'Illegally induced abortion NOS'
p2296
sS'PA165108359'
p2297
S"Bird-fancier's lung NOS"
p2298
sS'PA165108358'
p2299
S'Malignant atrophic papulosis'
p2300
sS'PA165108429'
p2301
S'Ciguatoxin causing toxic effect'
p2302
sS'PA165108428'
p2303
S'Accelerated idioventricular rhythm'
p2304
sS'PA166048817'
p2305
S'Young Child'
p2306
sS'PA165108351'
p2307
S'Fistula of bile duct NOS'
p2308
sS'PA165108422'
p2309
S'Congenital haemolytic anaemia'
p2310
sS'PA165108421'
p2311
S'Occupational dermatitis'
p2312
sS'PA165108420'
p2313
S'Erysipelothrix infection NOS'
p2314
sS'PA165108355'
p2315
S'St. Louis encephalitis virus neuroinvasive disease'
p2316
sS'PA165108354'
p2317
S'Fetal-maternal hemorrhage unspecified'
p2318
sS'PA165108425'
p2319
S'Fracture of bones NOS'
p2320
sS'PA165108356'
p2321
S'Chronic fluorine poisoning'
p2322
sS'PA162372625'
p2323
S'Microtia'
p2324
sS'PA443294'
p2325
S'Agammaglobulinemia'
p2326
sS'PA165108199'
p2327
S'Acanthamoeba keratitis'
p2328
sS'PA162372626'
p2329
S'Microcephalic Osteodysplastic Primordial Dwarfism Type II (MOPD II)'
p2330
sS'PA443291'
p2331
S'Afibrinogenemia'
p2332
sS'PA447294'
p2333
S'Depression, Postpartum'
p2334
sS'PA447296'
p2335
S'nondiabetic proteinuric nephropathy'
p2336
sS'PA446340'
p2337
S'Mucopolysaccharidosis II'
p2338
sS'PA165108192'
p2339
S'Respiratory system diseases NOS'
p2340
sS'PA165108191'
p2341
S'Dermatomycosis NOS'
p2342
sS'PA446343'
p2343
S'Gangliosidosis GM1'
p2344
sS'PA165108197'
p2345
S'Lichen planus NOS'
p2346
sS'PA443298'
p2347
S'Agraphia'
p2348
sS'PA165108195'
p2349
S'Injury arm NOS'
p2350
sS'PA165108194'
p2351
S'Fibro-osteoma'
p2352
sS'PA443453'
p2353
S'Astrocytoma'
p2354
sS'PA443452'
p2355
S'Astigmatism'
p2356
sS'PA443451'
p2357
S'Asthma, Exercise-Induced'
p2358
sS'PA443450'
p2359
S'Asthma'
p2360
sS'PA443457'
p2361
S'Athetosis'
p2362
sS'PA443984'
p2363
S'Eclampsia'
p2364
sS'PA443987'
p2365
S'Ectodermal Dysplasia'
p2366
sS'PA443454'
p2367
S'Ataxia'
p2368
sS'PA443989'
p2369
S'Ectopia Lentis'
p2370
sS'PA445331'
p2371
S'Pituitary Neoplasms'
p2372
sS'PA443459'
p2373
S'Atrial Fibrillation'
p2374
sS'PA445336'
p2375
S'Placenta Previa'
p2376
sS'PA445337'
p2377
S'Placental Insufficiency'
p2378
sS'PA443279'
p2379
S'Pelvic Inflammatory Disease'
p2380
sS'PA443273'
p2381
S'Adenoviridae Infections'
p2382
sS'PA444792'
p2383
S'Hyperlipoproteinemia Type I'
p2384
sS'PA443275'
p2385
S'Adhesion'
p2386
sS'PA446644'
p2387
S'Adrenocortical Carcinoma'
p2388
sS'PA446646'
p2389
S'Carcinoma, Ductal, Breast'
p2390
sS'PA446643'
p2391
S'Carcinoma, Acinar Cell'
p2392
sS'PA166127658'
p2393
S'Recurrence free survival'
p2394
sS'PA443481'
p2395
S'Barrett Esophagus'
p2396
sS'PA446649'
p2397
S'Carcinoma, Medullary'
p2398
sS'PA446648'
p2399
S'Carcinoma, Lobular'
p2400
sS'PA165108229'
p2401
S'Purulent conjunctivitis'
p2402
sS'PA165108228'
p2403
S'Trigeminal neuralgia NOS'
p2404
sS'PA165108225'
p2405
S'Disturbance of conduct NOS'
p2406
sS'PA165108224'
p2407
S'Wandering spleen'
p2408
sS'PA165108227'
p2409
S'Juvenile chronic myeloid leukaemia'
p2410
sS'PA165108226'
p2411
S'Spinal stenosis of unspecified region'
p2412
sS'PA165108221'
p2413
S'Borderline personality disorder'
p2414
sS'PA165108220'
p2415
S'Avian reticuloendotheliosis'
p2416
sS'PA165108223'
p2417
S'Post poliomyelitis syndrome'
p2418
sS'PA165108222'
p2419
S'Diaper rash'
p2420
sS'PA443674'
p2421
S'Diffuse Cerebral Sclerosis of Schilder'
p2422
sS'PA443673'
p2423
S'Cerebral Palsy'
p2424
sS'PA443672'
p2425
S'Ischemic Attack, Transient'
p2426
sS'PA443671'
p2427
S'Brain Ischemia'
p2428
sS'PA443670'
p2429
S'Cerebral Infarction'
p2430
sS'PA443678'
p2431
S'Cerebrovascular Disorders'
p2432
sS'PA165108986'
p2433
S'Intestinal diphyllobothriasis'
p2434
sS'PA444529'
p2435
S'Hyperlipidemia, Familial Combined'
p2436
sS'PA152530790'
p2437
S'Lactic Acidosis, Fatal Infantile'
p2438
sS'PA446739'
p2439
S'Space Motion Sickness'
p2440
sS'PA446738'
p2441
S'Bone Demineralization, Pathologic'
p2442
sS'PA445845'
p2443
S'Thrombocythemia, Essential'
p2444
sS'PA445843'
p2445
S'Thrombasthenia'
p2446
sS'PA444527'
p2447
S'Hyperkinesis'
p2448
sS'PA444863'
p2449
S'Malignant Hyperthermia'
p2450
sS'PA446734'
p2451
S'Soft Tissue Infections'
p2452
sS'PA444865'
p2453
S'Malocclusion'
p2454
sS'PA446736'
p2455
S'Hypokinesia'
p2456
sS'PA445034'
p2457
S'Myxoma'
p2458
sS'PA162372808'
p2459
S'Hypogonadism'
p2460
sS'PA152209815'
p2461
S'HbH Disease'
p2462
sS'PA162372800'
p2463
S'Cousin Syndrome'
p2464
sS'PA445598'
p2465
S'Sarcoma, Experimental'
p2466
sS'PA445599'
p2467
S'Sarcoma, Kaposi'
p2468
sS'PA445594'
p2469
S'Sarcoma'
p2470
sS'PA166048811'
p2471
S'Iritis'
p2472
sS'PA445597'
p2473
S"Sarcoma, Ewing's"
p2474
sS'PA445592'
p2475
S'Sandhoff Disease'
p2476
sS'PA445593'
p2477
S'Sarcoidosis'
p2478
sS'PA444941'
p2479
S'Metaplasia'
p2480
sS'PA444261'
p2481
S'Genital Neoplasms, Female'
p2482
sS'PA165108277'
p2483
S'Spirochetal infection NOS'
p2484
sS'PA444265'
p2485
S'Giant Cell Tumors'
p2486
sS'PA444267'
p2487
S'Giardiasis'
p2488
sS'PA444266'
p2489
S'Giant Lymph Node Hyperplasia'
p2490
sS'PA444269'
p2491
S'Gilbert Disease'
p2492
sS'PA444268'
p2493
S'Gigantism'
p2494
sS'PA446827'
p2495
S'Hematologic Neoplasms'
p2496
sS'PA446821'
p2497
S'Xanthomatosis, Cerebrotendinous'
p2498
sS'PA152249159'
p2499
S'Acrocephalopolysyndactyly type II'
p2500
sS'PA446822'
p2501
S'Epilepsy, Rolandic'
p2502
sS'PA444946'
p2503
S'Microphthalmos'
p2504
sS'PA166114394'
p2505
S'transplanted organ rejection'
p2506
sS'PA445031'
p2507
S'Myotonic Dystrophy'
p2508
sS'PA445939'
p2509
S'Chagas Disease'
p2510
sS'PA445934'
p2511
S'Trophoblastic Neoplasms'
p2512
sS'PA445030'
p2513
S'Myotonia'
p2514
sS'PA445932'
p2515
S'Trisomy'
p2516
sS'PA165108275'
p2517
S'Stenosing tenosynovitis'
p2518
sS'PA445931'
p2519
S'Trismus'
p2520
sS'PA166048900'
p2521
S'Adenovirus Infections, Human'
p2522
sS'PA166048901'
p2523
S'Microsporidiosis'
p2524
sS'PA166048902'
p2525
S'Adrenal Cortex Neoplasms'
p2526
sS'PA166048903'
p2527
S'Skin Diseases, Vesiculobullous'
p2528
sS'PA166048904'
p2529
S'Conjunctivitis, Viral'
p2530
sS'PA166048905'
p2531
S'Eye Infections'
p2532
sS'PA166048906'
p2533
S'Blood Platelet Disorders'
p2534
sS'PA166048907'
p2535
S'Adolescent'
p2536
sS'PA166048908'
p2537
S'Laryngitis'
p2538
sS'PA166048909'
p2539
S'Catatonia'
p2540
sS'PA157379134'
p2541
S'Myalgia unspecified'
p2542
sS'PA134850479'
p2543
S'trimethylaminuria'
p2544
sS'PA446912'
p2545
S'Tyrosinemias'
p2546
sS'PA446916'
p2547
S'Sleep Apnea, Obstructive'
p2548
sS'PA447109'
p2549
S'Myopathies, Structural, Congenital'
p2550
sS'PA447184'
p2551
S'Romano-Ward Syndrome'
p2552
sS'PA165109011'
p2553
S'Salmon patch naevus'
p2554
sS'PA145007166'
p2555
S'Multiple synostosis syndrome'
p2556
sS'PA165109013'
p2557
S'Chondrocalcinosis due to pyrophosphate crystals, NOS'
p2558
sS'PA165109012'
p2559
S"Ludwig's angina"
p2560
sS'PA165109015'
p2561
S'Koro'
p2562
sS'PA165109014'
p2563
S'Premature rupture of membranes NOS'
p2564
sS'PA165109017'
p2565
S'Alcohol amnestic disorder'
p2566
sS'PA165108862'
p2567
S'Pallister-Hall syndrome'
p2568
sS'PA165109019'
p2569
S'Sympathetic uveitis'
p2570
sS'PA165109018'
p2571
S'Pyogenic granuloma unspecified'
p2572
sS'PA446140'
p2573
S'Optic Atrophies, Hereditary'
p2574
sS'PA165108894'
p2575
S'Ventilator-acquired pneumonia'
p2576
sS'PA165108346'
p2577
S'Lipoprotein deficiency NOS'
p2578
sS'PA165108712'
p2579
S'Unspecified disturbance of conduct'
p2580
sS'PA444677'
p2581
S'Keratoderma, Palmoplantar'
p2582
sS'PA444675'
p2583
S'Keratosis'
p2584
sS'PA165108715'
p2585
S'Disorder of iron metabolism NOS'
p2586
sS'PA444678'
p2587
S'Kernicterus'
p2588
sS'PA444679'
p2589
S'Ketosis'
p2590
sS'PA165108432'
p2591
S'Segmental uterine aplasia'
p2592
sS'PA165108866'
p2593
S'Autosomal recessive hypohidrotic ectodermal dysplasia syndrome'
p2594
sS'PA444070'
p2595
S'Epilepsy, Absence'
p2596
sS'PA444071'
p2597
S'Epilepsy, Temporal Lobe'
p2598
sS'PA165108433'
p2599
S'Solitary anal ulcer'
p2600
sS'PA444075'
p2601
S'Epistaxis'
p2602
sS'PA165108196'
p2603
S"Munchausen's syndrome"
p2604
sS'PA135057241'
p2605
S'Proarrhythmia'
p2606
sS'PA446145'
p2607
S'Myocardial Reperfusion Injury'
p2608
sS'PA165108343'
p2609
S'Ebola virus disease'
p2610
sS'PA166048834'
p2611
S'Ascaridida Infections'
p2612
sS'PA166048835'
p2613
S'Toxocariasis'
p2614
sS'PA166048836'
p2615
S'Strongylida Infections'
p2616
sS'PA166048837'
p2617
S'Necatoriasis'
p2618
sS'PA166048830'
p2619
S'Vascular Headaches'
p2620
sS'PA166048831'
p2621
S'Cysticercosis'
p2622
sS'PA166048832'
p2623
S'Opisthorchiasis'
p2624
sS'PA166048833'
p2625
S'Ancylostomiasis'
p2626
sS'PA445403'
p2627
S'Pregnancy Complications'
p2628
sS'PA166048838'
p2629
S'Hymenolepiasis'
p2630
sS'PA166048839'
p2631
S'Graft Occlusion, Vascular'
p2632
sS'PA446149'
p2633
S'Panniculitis, Lupus Erythematosus'
p2634
sS'PA446006'
p2635
S'Uterine Prolapse'
p2636
sS'PA446004'
p2637
S'Uterine Neoplasms'
p2638
sS'PA446002'
p2639
S'Uterine Hemorrhage'
p2640
sS'PA165109165'
p2641
S'Mallory-Weiss syndrome'
p2642
sS'PA165109164'
p2643
S'Nutritional deficiency NOS'
p2644
sS'PA165109167'
p2645
S'Microscopic colitis'
p2646
sS'PA165109166'
p2647
S'Combat fatigue'
p2648
sS'PA165109161'
p2649
S'Malocclusion, Angle class II, division 2'
p2650
sS'PA165109160'
p2651
S'Tuberculosis of kidney NOS'
p2652
sS'PA445612'
p2653
S'Sciatica'
p2654
sS'PA165109162'
p2655
S'Bronchopulmonary dysplasia of newborn'
p2656
sS'PA445617'
p2657
S'Scleroderma, Systemic'
p2658
sS'PA445616'
p2659
S'Scleroderma, Localized'
p2660
sS'PA165109169'
p2661
S'Linear sebaceous naevus sequence'
p2662
sS'PA165109168'
p2663
S'Exposure of tooth pulp'
p2664
sS'PA166124372'
p2665
S'treatment modification'
p2666
sS'PA165109142'
p2667
S'Stokes-Adams syndrome'
p2668
sS'PA165109141'
p2669
S'Acne keloid'
p2670
sS'PA444184'
p2671
S'Fibrosarcoma'
p2672
sS'PA444185'
p2673
S'Fibrosis'
p2674
sS'PA444186'
p2675
S'Fibromyalgia'
p2676
sS'PA162372590'
p2677
S'Renal agenesis'
p2678
sS'PA444181'
p2679
S'Fibroma'
p2680
sS'PA444183'
p2681
S'Fibromuscular Dysplasia'
p2682
sS'PA166124386'
p2683
S'gastrointestinal toxicity'
p2684
sS'PA444189'
p2685
S'Fibrous Dysplasia, Polyostotic'
p2686
sS'PA165108166'
p2687
S'Septal defect NOS'
p2688
sS'PA165108167'
p2689
S'Schistosoma mansonii infection'
p2690
sS'PA165108164'
p2691
S'Childhood schizophrenia NOS'
p2692
sS'PA165108165'
p2693
S'Infantile cortical hyperostosis'
p2694
sS'PA165108162'
p2695
S'Therapeutic abortion'
p2696
sS'PA165108163'
p2697
S'Parathyroid disorder NOS'
p2698
sS'PA165108160'
p2699
S'Malignant meningitis'
p2700
sS'PA165108161'
p2701
S'Posterior inferior cerebellar artery syndrome'
p2702
sS'PA446357'
p2703
S'Neoplasms, Second Primary'
p2704
sS'PA165108168'
p2705
S'Deficiency of catalase'
p2706
sS'PA165108169'
p2707
S'Familial renal glucosuria'
p2708
sS'PA165108760'
p2709
S'Cervicitis unspecified'
p2710
sS'PA165108761'
p2711
S'African trypanosomiasis NOS'
p2712
sS'PA165108762'
p2713
S'Leptospirosis NOS'
p2714
sS'PA165108763'
p2715
S'Drunkenness NOS'
p2716
sS'PA165108764'
p2717
S'Lethal midline granuloma'
p2718
sS'PA165108765'
p2719
S'Hypobaropathy NOS'
p2720
sS'PA165108766'
p2721
S'Unspecified tympanic membrane perforation'
p2722
sS'PA165108767'
p2723
S'Disorder of lactation NOS, unspecified'
p2724
sS'PA165108768'
p2725
S'Drug withdrawal syndrome in newborn'
p2726
sS'PA165108769'
p2727
S'Anisometropia'
p2728
sS'PA446139'
p2729
S'Hereditary Motor and Sensory Neuropathies'
p2730
sS'PA446138'
p2731
S'Gastrinoma'
p2732
sS'PA445673'
p2733
S'Situs Inversus'
p2734
sS'PA445103'
p2735
S'Neurofibromatosis 1'
p2736
sS'PA445102'
p2737
S'Neurofibroma'
p2738
sS'PA444458'
p2739
S'Hernia, Umbilical'
p2740
sS'PA444459'
p2741
S'Hernia, Ventral'
p2742
sS'PA445107'
p2743
S'Neuroma, Acoustic'
p2744
sS'PA445105'
p2745
S'Neurologic Manifestations'
p2746
sS'PA445104'
p2747
S'Neuroleptic Malignant Syndrome'
p2748
sS'PA444452'
p2749
S'Hernia, Diaphragmatic'
p2750
sS'PA444450'
p2751
S'Hermaphroditism'
p2752
sS'PA444451'
p2753
S'Hernia'
p2754
sS'PA444456'
p2755
S'Hernia, Inguinal'
p2756
sS'PA444699'
p2757
S'Kuru'
p2758
sS'PA444690'
p2759
S'Medullary Sponge Kidney'
p2760
sS'PA444691'
p2761
S'Menkes Kinky Hair Syndrome'
p2762
sS'PA444693'
p2763
S'Klinefelter Syndrome'
p2764
sS'PA444694'
p2765
S'Klippel-Feil Syndrome'
p2766
sS'PA162373036'
p2767
S'Perry syndrome'
p2768
sS'PA445241'
p2769
S'Paraneoplastic Syndromes'
p2770
sS'PA447192'
p2771
S'Uveitis, Anterior'
p2772
sS'PA447190'
p2773
S'Cytochrome-c Oxidase Deficiency'
p2774
sS'PA153619833'
p2775
S'Peripheral Vascular Diseases'
p2776
sS'PA447196'
p2777
S'Anxiety Disorders'
p2778
sS'PA447197'
p2779
S'Attention Deficit Disorder with Hyperactivity'
p2780
sS'PA447194'
p2781
S'Agoraphobia'
p2782
sS'PA447195'
p2783
S'Anorexia Nervosa'
p2784
sS'PA447198'
p2785
S'Autistic Disorder'
p2786
sS'PA447199'
p2787
S'Bipolar Disorder'
p2788
sS'PA445494'
p2789
S'Radiculopathy'
p2790
sS'PA165108504'
p2791
S'Hypercortisolism due to nonpituitary tumor'
p2792
sS'PA165108505'
p2793
S'Arteriosclerosis obliterans'
p2794
sS'PA165108506'
p2795
S'Bacterial vaginosis'
p2796
sS'PA165108507'
p2797
S'Tibial neuropathy'
p2798
sS'PA443866'
p2799
S'Dental Pulp Calcification'
p2800
sS'PA165108501'
p2801
S'Passive aggressive personality disorder'
p2802
sS'PA165108502'
p2803
S'Herpes simplex dendritic keratitis'
p2804
sS'PA165108503'
p2805
S'Lingual goiter'
p2806
sS'PA165108347'
p2807
S'Paraneoplastic cerebellar degeneration'
p2808
sS'PA165108508'
p2809
S'Shy-Drager syndrome'
p2810
sS'PA165108509'
p2811
S'Disease due to Hantanvirus'
p2812
sS'PA162372748'
p2813
S'Brittle Cornea Syndrome'
p2814
sS'PA446227'
p2815
S'Retinal Dysplasia'
p2816
sS'PA165108695'
p2817
S'Malocclusion, Angle class I'
p2818
sS'PA446225'
p2819
S'Eye Diseases, Hereditary'
p2820
sS'PA446224'
p2821
S'Aniridia'
p2822
sS'PA165108690'
p2823
S'Infection due to Mycobacterium avium'
p2824
sS'PA443517'
p2825
S'Blepharitis'
p2826
sS'PA443514'
p2827
S'Blast Crisis'
p2828
sS'PA446220'
p2829
S'Abdominal Pain'
p2830
sS'PA443518'
p2831
S'Blepharoptosis'
p2832
sS'PA443519'
p2833
S'Blepharospasm'
p2834
sS'PA165108698'
p2835
S'Hypertrophic gastropathy'
p2836
sS'PA165108699'
p2837
S'Cheilitis granulomatosa of Miescher-Melkersson-Rosenthal'
p2838
sS'PA446229'
p2839
S'Gyrate Atrophy'
p2840
sS'PA165108980'
p2841
S'Neuroinvasive Eastern equine encephalitis virus infection'
p2842
sS'PA165108981'
p2843
S'Bladder calculus NOS'
p2844
sS'PA165108982'
p2845
S'Bovine respiratory disease complex'
p2846
sS'PA165108983'
p2847
S'Congenital hypertrophic pyloric stenosis'
p2848
sS'PA165108984'
p2849
S'Chondromalacia of patella'
p2850
sS'PA445032'
p2851
S'Myotonia Congenita'
p2852
sS'PA444528'
p2853
S'Hyperlipidemias'
p2854
sS'PA165108987'
p2855
S'Human immunodeficiency virus enteropathy'
p2856
sS'PA165108988'
p2857
S'Dystrophy due to malnutrition'
p2858
sS'PA165108989'
p2859
S'Andersen Tawil syndrome'
p2860
sS'PA444524'
p2861
S'Hyperhidrosis'
p2862
sS'PA444525'
p2863
S'Hyperinsulinism'
p2864
sS'PA444522'
p2865
S'Hyperglycemia'
p2866
sS'PA445038'
p2867
S'Nail-Patella Syndrome'
p2868
sS'PA445941'
p2869
S'Tuberculosis'
p2870
sS'PA165108438'
p2871
S'Acquired pes'
p2872
sS'PA165108439'
p2873
S'Acute hemorrhagic leukoencephalitis'
p2874
sS'PA165108348'
p2875
S'Opsoclonus-myoclonus syndrome'
p2876
sS'PA165108349'
p2877
S'Alpha heavy chain disease, enteric form'
p2878
sS'PA165108430'
p2879
S'Dental fluorosis'
p2880
sS'PA165108431'
p2881
S'Fracture of base of skull NOS'
p2882
sS'PA165108344'
p2883
S'Acquired trigger finger'
p2884
sS'PA165108345'
p2885
S'Female pelvic inflammatory diseases NOS'
p2886
sS'PA165108434'
p2887
S'Unspecified catatonic schizophrenia'
p2888
sS'PA165108435'
p2889
S'Endocrine disturbance NOS'
p2890
sS'PA165108340'
p2891
S'Arthus type urticaria'
p2892
sS'PA165108341'
p2893
S'Ocular toxoplasmosis'
p2894
sS'PA165108188'
p2895
S'Pneumoretroperitoneum'
p2896
sS'PA165108189'
p2897
S'Obstructive jaundice NOS'
p2898
sS'PA446359'
p2899
S'Diabetes, Gestational'
p2900
sS'PA446358'
p2901
S'Critical Illness'
p2902
sS'PA446353'
p2903
S'Granular Cell Tumor'
p2904
sS'PA165108181'
p2905
S"Marek's disease"
p2906
sS'PA446351'
p2907
S'Enzootic Bovine Leukosis'
p2908
sS'PA165108183'
p2909
S'Glossodynia'
p2910
sS'PA165108184'
p2911
S'Juvenile epithelial corneal dystrophy'
p2912
sS'PA165108185'
p2913
S'REM sleep behavior disorder'
p2914
sS'PA446355'
p2915
S'Eosinophilia-Myalgia Syndrome'
p2916
sS'PA165108187'
p2917
S"Asperger's disorder"
p2918
sS'PA443466'
p2919
S'Autonomic Nervous System Diseases'
p2920
sS'PA443467'
p2921
S'Avian Leukosis'
p2922
sS'PA443464'
p2923
S'Autoimmune Diseases'
p2924
sS'PA443465'
p2925
S'Autolysis'
p2926
sS'PA443460'
p2927
S'Atrial Flutter'
p2928
sS'PA443461'
p2929
S'Atrophy'
p2930
sS'PA445323'
p2931
S'Piedra'
p2932
sS'PA445321'
p2933
S'Obesity Hypoventilation Syndrome'
p2934
sS'PA445320'
p2935
S'Photosensitivity Disorders'
p2936
sS'PA445325'
p2937
S'Pigmentation Disorders'
p2938
sS'PA443469'
p2939
S'Avitaminosis'
p2940
sS'PA165857066'
p2941
S'Anemia, Hemolytic, Congenital Nonspherocytic'
p2942
sS'PA443247'
p2943
S'Acne Vulgaris'
p2944
sS'PA443244'
p2945
S'Acidosis, Renal Tubular'
p2946
sS'PA443242'
p2947
S'Acidosis'
p2948
sS'PA443243'
p2949
S'Acidosis, Lactic'
p2950
sS'PA443240'
p2951
S'Achondroplasia'
p2952
sS'PA445572'
p2953
S'Ring Chromosomes'
p2954
sS'PA447172'
p2955
S'Mitochondrial Diseases'
p2956
sS'PA447178'
p2957
S'Pulmonary Disease, Chronic Obstructive'
p2958
sS'PA165108233'
p2959
S'Carbuncle NOS'
p2960
sS'PA165108230'
p2961
S'Hemorrhagic nephroso-nephritis'
p2962
sS'PA165108231'
p2963
S'Seborrhea NOS'
p2964
sS'PA165108236'
p2965
S'Disease of larynx unspecified'
p2966
sS'PA165108237'
p2967
S'Hypertensive lower oesophageal sphincter'
p2968
sS'PA165108234'
p2969
S'Toxic effect of carbon tetrachloride'
p2970
sS'PA165108235'
p2971
S'Bancroftian elephantiasis'
p2972
sS'PA443643'
p2973
S'Catalepsy'
p2974
sS'PA165108238'
p2975
S'Disorders of cervix NOS'
p2976
sS'PA165108239'
p2977
S'Black water fever'
p2978
sS'PA447176'
p2979
S'Optic Atrophy, Autosomal Dominant'
p2980
sS'PA443645'
p2981
S'Cataract'
p2982
sS'PA443888'
p2983
S'Diabetes Mellitus, Type 1'
p2984
sS'PA443880'
p2985
S'Dermatitis, Contact'
p2986
sS'PA443882'
p2987
S'Dermatomyositis'
p2988
sS'PA443883'
p2989
S'Dermoid Cyst'
p2990
sS'PA443884'
p2991
S'Dextrocardia'
p2992
sS'PA443885'
p2993
S'Diabetes Insipidus'
p2994
sS'PA443886'
p2995
S'Diabetes Mellitus'
p2996
sS'PA152240221'
p2997
S'Caudal Duplication Anomaly'
p2998
sS'PA445859'
p2999
S'Thyroiditis, Autoimmune'
p3000
sS'PA445858'
p3001
S'Thyroiditis'
p3002
sS'PA445851'
p3003
S'Thymoma'
p3004
sS'PA446946'
p3005
S'Cerebrovascular Trauma'
p3006
sS'PA445857'
p3007
S'Thyroid Neoplasms'
p3008
sS'PA445856'
p3009
S'Thyroid Diseases'
p3010
sS'PA444859'
p3011
S'Malaria'
p3012
sS'PA446744'
p3013
S'Cryptogenic Organizing Pneumonia'
p3014
sS'PA446745'
p3015
S'Breast Neoplasms, Male'
p3016
sS'PA446746'
p3017
S'Gastroparesis'
p3018
sS'PA444855'
p3019
S'Mycetoma'
p3020
sS'PA446740'
p3021
S'Hyperoxia'
p3022
sS'PA446741'
p3023
S'Ventricular Dysfunction, Right'
p3024
sS'PA446742'
p3025
S'Diabetes Insipidus, Nephrogenic'
p3026
sS'PA444851'
p3027
S'Macroglossia'
p3028
sS'PA165108950'
p3029
S'Pituitary apoplexy'
p3030
sS'PA446580'
p3031
S'Hepatoblastoma'
p3032
sS'PA446581'
p3033
S'Mixed Tumor, Malignant'
p3034
sS'PA446586'
p3035
S'Sarcoma, Endometrial Stromal'
p3036
sS'PA444988'
p3037
S'Multiple Trauma'
p3038
sS'PA444989'
p3039
S'Mumps'
p3040
sS'PA166122058'
p3041
S'mucositis'
p3042
sS'PA444985'
p3043
S'Multiple Myeloma'
p3044
sS'PA444986'
p3045
S'Multiple Organ Failure'
p3046
sS'PA444987'
p3047
S'Multiple Sclerosis'
p3048
sS'PA165108232'
p3049
S'Shell shock'
p3050
sS'PA445589'
p3051
S'Salmonella Infections'
p3052
sS'PA447179'
p3053
S'Sialic Acid Storage Disease'
p3054
sS'PA133888799'
p3055
S'Organ Transplantation'
p3056
sS'PA445581'
p3057
S'Rubinstein-Taybi Syndrome'
p3058
sS'PA446392'
p3059
S'Malaria, Vivax'
p3060
sS'PA445232'
p3061
S'Parakeratosis'
p3062
sS'PA446391'
p3063
S'Malaria, Cerebral'
p3064
sS'PA165108143'
p3065
S'Mycobacterial infection'
p3066
sS'PA444214'
p3067
S'Hand, Foot and Mouth Disease'
p3068
sS'PA153627681'
p3069
S'Cleft Palate, X-Linked'
p3070
sS'PA446696'
p3071
S'Nevi and Melanomas'
p3072
sS'PA444526'
p3073
S'Hyperkalemia'
p3074
sS'PA446694'
p3075
S'Hemangioma, Capillary'
p3076
sS'PA446695'
p3077
S'Hemangioblastoma'
p3078
sS'PA443640'
p3079
S'Cartilage Diseases'
p3080
sS'PA446690'
p3081
S'Neurofibrosarcoma'
p3082
sS'PA165108330'
p3083
S'Subclavian steal syndrome'
p3084
sS'PA165108260'
p3085
S'Vertebral artery dissection'
p3086
sS'PA445920'
p3087
S'Trichinosis'
p3088
sS'PA445926'
p3089
S'Tricuspid Valve Insufficiency'
p3090
sS'PA447177'
p3091
S'Optic Atrophy, Hereditary, Leber'
p3092
sS'PA444328'
p3093
S'Granulosa Cell Tumor'
p3094
sS'PA444329'
p3095
S'Graves Disease'
p3096
sS'PA444320'
p3097
S'Graft vs Host Disease'
p3098
sS'PA444321'
p3099
S'Granuloma'
p3100
sS'PA444327'
p3101
S'Granulomatous Disease, Chronic'
p3102
sS'PA446968'
p3103
S'Infarction, Middle Cerebral Artery'
p3104
sS'PA446969'
p3105
S'Venous Thrombosis'
p3106
sS'PA165109006'
p3107
S'Trench fever'
p3108
sS'PA165109007'
p3109
S'Tuberculosis of central nervous system NOS'
p3110
sS'PA165109004'
p3111
S'Endomyocardial fibrosis'
p3112
sS'PA165109005'
p3113
S'Poland anomaly'
p3114
sS'PA165109002'
p3115
S'Ectopic pregnancy NOS'
p3116
sS'PA165109003'
p3117
S'Penile disorders NOS'
p3118
sS'PA165109000'
p3119
S'Retinoschisis unspecified'
p3120
sS'PA165109001'
p3121
S'Vogt-Koyanagi syndrome'
p3122
sS'PA165109008'
p3123
S'Effusion of joint NOS'
p3124
sS'PA165109009'
p3125
S'Collagenous colitis'
p3126
sS'PA444665'
p3127
S'Kartagener Syndrome'
p3128
sS'PA444667'
p3129
S'Keloid'
p3130
sS'PA444666'
p3131
S'Kearns-Sayer Syndrome'
p3132
sS'PA444661'
p3133
S'Joint Diseases'
p3134
sS'PA444660'
p3135
S"Job's Syndrome"
p3136
sS'PA444662'
p3137
S'Joint Instability'
p3138
sS'PA444668'
p3139
S'Keratitis'
p3140
sS'PA151958338'
p3141
S'Neonatal death'
p3142
sS'PA166048809'
p3143
S'Onychomycosis'
p3144
sS'PA444062'
p3145
S'Epidermolysis Bullosa'
p3146
sS'PA444061'
p3147
S'Epidermodysplasia Verruciformis'
p3148
sS'PA444067'
p3149
S'Epilepsy, Generalized'
p3150
sS'PA444066'
p3151
S'Epilepsies, Partial'
p3152
sS'PA444065'
p3153
S'Epilepsy'
p3154
sS'PA166048801'
p3155
S'Skin Diseases, Eczematous'
p3156
sS'PA166048800'
p3157
S'Skin Diseases, Parasitic'
p3158
sS'PA166048803'
p3159
S'Carbon Monoxide Poisoning'
p3160
sS'PA166048802'
p3161
S'Thyroid Crisis'
p3162
sS'PA166048805'
p3163
S'Rabies'
p3164
sS'PA166048804'
p3165
S'Hypoxia, Brain'
p3166
sS'PA166048807'
p3167
S'Behcet Syndrome'
p3168
sS'PA166048806'
p3169
S'Acid-Base Imbalance'
p3170
sS'PA152238063'
p3171
S'Mowat-Wilson Syndrome'
p3172
sS'PA152545809'
p3173
S'Lethal Congenital Contractual Syndrome Type 2'
p3174
sS'PA446032'
p3175
S'Vesico-Ureteral Reflux'
p3176
sS'PA165109178'
p3177
S'Viral meningitis NOS'
p3178
sS'PA165109179'
p3179
S'Rickettsioses NOS'
p3180
sS'PA446036'
p3181
S'Viremia'
p3182
sS'PA165109172'
p3183
S'Diverticulitis unspecified'
p3184
sS'PA152238067'
p3185
S'Crisponi Syndrome'
p3186
sS'PA165109170'
p3187
S'Mesoblastic nephroma'
p3188
sS'PA165109171'
p3189
S'Prostatitis NOS'
p3190
sS'PA165109176'
p3191
S'Kyasanur forest disease'
p3192
sS'PA165109177'
p3193
S'Human T-lymphotropic virus 2 infection'
p3194
sS'PA165109174'
p3195
S'Angioimmunoblastic T-cell lymphoma'
p3196
sS'PA152238066'
p3197
S'Mental Retardation, X-Linked'
p3198
sS'PA445620'
p3199
S'Scotoma'
p3200
sS'PA445621'
p3201
S'Scrapie'
p3202
sS'PA152239578'
p3203
S'Matthew-Wood Syndrome'
p3204
sS'PA445629'
p3205
S'Seizures'
p3206
sS'PA152238518'
p3207
S'Epilepsy, Autosomal Dominant Nocturnal Frontal Lobe'
p3208
sS'PA165110336'
p3209
S'Cortical paralysis of fixation syndrome'
p3210
sS'PA165110335'
p3211
S'Gerstmann Syndrome'
p3212
sS'PA166123755'
p3213
S'delayed graft function'
p3214
sS'PA166123756'
p3215
S'creatinine clearance'
p3216
sS'PA444197'
p3217
S'Flatulence'
p3218
sS'PA444196'
p3219
S'Flatfoot'
p3220
sS'PA444194'
p3221
S'Fistula'
p3222
sS'PA444190'
p3223
S'Filariasis'
p3224
sS'PA165108466'
p3225
S'Tuberculous meningitis NOS'
p3226
sS'PA444199'
p3227
S'Flushing'
p3228
sS'PA165108755'
p3229
S'Lung empyema NOS'
p3230
sS'PA165108754'
p3231
S'Genital herpes simplex NOS'
p3232
sS'PA165108757'
p3233
S'Brown-S\xc3\x83\xc2\xa9quard syndrome'
p3234
sS'PA165108756'
p3235
S'Infection by Trypanosoma equiperdum'
p3236
sS'PA165108751'
p3237
S'Facial hemiatrophy'
p3238
sS'PA165108750'
p3239
S'Substernal goiter'
p3240
sS'PA165108753'
p3241
S'Allergic extrinsic alveolitis NOS'
p3242
sS'PA165108752'
p3243
S'Blastomycosis NOS'
p3244
sS'PA165108759'
p3245
S'Congenital syphilis NOS'
p3246
sS'PA165108758'
p3247
S'Scleredema'
p3248
sS'PA446108'
p3249
S'Colorectal Neoplasms'
p3250
sS'PA445137'
p3251
S'Ocular Hypertension'
p3252
sS'PA445135'
p3253
S'Occupational Diseases'
p3254
sS'PA444449'
p3255
S'Hepatorenal Syndrome'
p3256
sS'PA444448'
p3257
S'Hepatomegaly'
p3258
sS'PA445130'
p3259
S'Nystagmus, Pathologic'
p3260
sS'PA445131'
p3261
S'Obesity'
p3262
sS'PA444445'
p3263
S'Hepatitis C'
p3264
sS'PA444447'
p3265
S'Carcinoma, Hepatocellular'
p3266
sS'PA444446'
p3267
S'Hepatolenticular Degeneration'
p3268
sS'PA444440'
p3269
S'Hepatitis, Chronic'
p3270
sS'PA445138'
p3271
S'Oculocerebrorenal Syndrome'
p3272
sS'PA444442'
p3273
S'Hepatitis, Toxic'
p3274
sS'PA444689'
p3275
S'Polycystic Kidney Diseases'
p3276
sS'PA444688'
p3277
S'Kidney Diseases, Cystic'
p3278
sS'PA444683'
p3279
S'Kidney Failure, Acute'
p3280
sS'PA444682'
p3281
S'Kidney Diseases'
p3282
sS'PA444680'
p3283
S'Kidney Calculi'
p3284
sS'PA444685'
p3285
S'Kidney Neoplasms'
p3286
sS'PA444684'
p3287
S'Kidney Failure, Chronic'
p3288
sS'PA165108539'
p3289
S'Regional odontodysplasia'
p3290
sS'PA165108538'
p3291
S'Deficiency of alpha-glucosidase'
p3292
sS'PA447186'
p3293
S'Denys-Drash Syndrome'
p3294
sS'PA447180'
p3295
S'Bronchitis, Chronic'
p3296
sS'PA447183'
p3297
S'Jervell-Lange Nielsen Syndrome'
p3298
sS'PA447182'
p3299
S'Anemia, Diamond-Blackfan'
p3300
sS'PA165108531'
p3301
S'Synovial cyst unspecified'
p3302
sS'PA165108530'
p3303
S'Cranial nerve injury NOS'
p3304
sS'PA165108533'
p3305
S'Impetigo NOS'
p3306
sS'PA165108532'
p3307
S'Unspecified entropion'
p3308
sS'PA165108535'
p3309
S'Cubital tunnel syndrome'
p3310
sS'PA165108534'
p3311
S'Carotid cavernous fistula'
p3312
sS'PA165108537'
p3313
S'Ranula'
p3314
sS'PA165108536'
p3315
S'Nelson syndrome'
p3316
sS'PA443875'
p3317
S'Dermatitis'
p3318
sS'PA443874'
p3319
S'Dentinogenesis Imperfecta'
p3320
sS'PA443877'
p3321
S'Dermatitis Herpetiformis'
p3322
sS'PA443876'
p3323
S'Dermatitis, Exfoliative'
p3324
sS'PA444857'
p3325
S'Malabsorption Syndromes'
p3326
sS'PA446213'
p3327
S'HIV Infections'
p3328
sS'PA443879'
p3329
S'Dermatitis, Atopic'
p3330
sS'PA444854'
p3331
S'Macular Edema'
p3332
sS'PA446214'
p3333
S'Osteoporosis, Postmenopausal'
p3334
sS'PA446215'
p3335
S'Fatigue Syndrome, Chronic'
p3336
sS'PA443504'
p3337
S'Birth Injuries'
p3338
sS'PA445009'
p3339
S'Mycoses'
p3340
sS'PA444852'
p3341
S'Macrostomia'
p3342
sS'PA445000'
p3343
S'Musculoskeletal Abnormalities'
p3344
sS'PA445001'
p3345
S'Musculoskeletal Diseases'
p3346
sS'PA445377'
p3347
S'Polycythemia'
p3348
sS'PA445007'
p3349
S'Mycoplasma Infections'
p3350
sS'PA445004'
p3351
S'Myasthenia Gravis'
p3352
sS'PA444531'
p3353
S'Hyperlipoproteinemia Type III'
p3354
sS'PA444530'
p3355
S'Hyperlipoproteinemias'
p3356
sS'PA444532'
p3357
S'Hyperlipoproteinemia Type IV'
p3358
sS'PA444535'
p3359
S'Hyperopia'
p3360
sS'PA444534'
p3361
S'Hypernatremia'
p3362
sS'PA165108440'
p3363
S'Trichotillomania'
p3364
sS'PA444538'
p3365
S'Hyperoxaluria'
p3366
sS'PA446743'
p3367
S'Parasitemia'
p3368
sS'PA165108911'
p3369
S'Open-bite unspecified'
p3370
sS'PA165108442'
p3371
S'Neoplasm of unspecified nature of digestive system'
p3372
sS'PA165108350'
p3373
S'Pigmented neuroectodermal tumour of infancy'
p3374
sS'PA446622'
p3375
S'Seminoma'
p3376
sS'PA165108445'
p3377
S'Relapsing febrile nodular nonsuppurative panniculitis'
p3378
sS'PA165108916'
p3379
S'Velopharyngeal inadequacy'
p3380
sS'PA165108870'
p3381
S'Systemic sclerosis, diffuse'
p3382
sS'PA165108409'
p3383
S'Adrenal gland disorder NOS'
p3384
sS'PA165108408'
p3385
S'Congenital tracheobronchomegaly'
p3386
sS'PA165108405'
p3387
S'Phosphatidylcholine-sterol acyltransferase deficiency'
p3388
sS'PA165108404'
p3389
S'Cystitis with bilharziasis'
p3390
sS'PA165108407'
p3391
S'Missed abortion'
p3392
sS'PA165108406'
p3393
S'Hyperglobulinemic purpura'
p3394
sS'PA165108401'
p3395
S'Acute coronary syndrome'
p3396
sS'PA165108400'
p3397
S'Corneal ulcer NOS'
p3398
sS'PA165108403'
p3399
S'Dyshidrosis unspecified'
p3400
sS'PA165108402'
p3401
S'Biliary dyskinesia'
p3402
sS'PA162370415'
p3403
S'metabolic syndrome'
p3404
sS'PA446368'
p3405
S'Yang Deficiency'
p3406
sS'PA446369'
p3407
S'Proteus Syndrome'
p3408
sS'PA443471'
p3409
S'Reflex, Babinski'
p3410
sS'PA443472'
p3411
S'Back Pain'
p3412
sS'PA446362'
p3413
S'Cerebral Amyloid Angiopathy'
p3414
sS'PA443474'
p3415
S'Bacterial Infections'
p3416
sS'PA446360'
p3417
S'Encephalopathy, Bovine Spongiform'
p3418
sS'PA446361'
p3419
S'Ovarian Failure, Premature'
p3420
sS'PA444850'
p3421
S'Waldenstrom Macroglobulinemia'
p3422
sS'PA446329'
p3423
S'Motor Neuron Disease'
p3424
sS'PA445318'
p3425
S'Phlebitis'
p3426
sS'PA445316'
p3427
S'Philadelphia Chromosome'
p3428
sS'PA165108566'
p3429
S'Adrenogenital syndrome NOS'
p3430
sS'PA445314'
p3431
S'Phenylketonurias'
p3432
sS'PA445315'
p3433
S'Pheochromocytoma'
p3434
sS'PA445312'
p3435
S'Pharyngitis'
p3436
sS'PA445311'
p3437
S'Pharyngeal Neoplasms'
p3438
sS'PA443251'
p3439
S'Acrocephalosyndactylia'
p3440
sS'PA443250'
p3441
S'Acquired Immunodeficiency Syndrome'
p3442
sS'PA165108352'
p3443
S'Pituitary dependent hypercortisolism'
p3444
sS'PA166115462'
p3445
S'dry mouth'
p3446
sS'PA443254'
p3447
S'Acromegaly'
p3448
sS'PA165108872'
p3449
S'Volvulus NOS'
p3450
sS'PA152407981'
p3451
S'JSRD-SLS'
p3452
sS'PA446487'
p3453
S'Skin Diseases, Vascular'
p3454
sS'PA443846'
p3455
S'Decompression Sickness'
p3456
sS'PA165108247'
p3457
S'Enterobiasis'
p3458
sS'PA165108246'
p3459
S'Thromboangiitis obliterans NOS'
p3460
sS'PA165108245'
p3461
S'Dizygotic twins'
p3462
sS'PA165108569'
p3463
S'Nail disease NOS'
p3464
sS'PA443659'
p3465
S'Cerebellar Ataxia'
p3466
sS'PA443658'
p3467
S'Central Nervous System Infections'
p3468
sS'PA165108241'
p3469
S'Infection by Strongylus equinus'
p3470
sS'PA165108240'
p3471
S'Male hematocele'
p3472
sS'PA443655'
p3473
S'Cellulitis'
p3474
sS'PA162372760'
p3475
S'SERKAL Syndrome'
p3476
sS'PA443657'
p3477
S'Central Nervous System Diseases'
p3478
sS'PA447160'
p3479
S'Chromosome Disorders'
p3480
sS'PA165108873'
p3481
S'Vesicular pharyngitis'
p3482
sS'PA447166'
p3483
S'Hip Injuries'
p3484
sS'PA443653'
p3485
S'Cell Transformation, Neoplastic'
p3486
sS'PA443652'
p3487
S'Celiac Disease'
p3488
sS'PA443899'
p3489
S'Diarrhea'
p3490
sS'PA443898'
p3491
S'Camurati-Engelmann Syndrome'
p3492
sS'PA443893'
p3493
S'Diabetic Nephropathies'
p3494
sS'PA443891'
p3495
S'Diabetic Angiopathies'
p3496
sS'PA443890'
p3497
S'Diabetes Mellitus, Type 2'
p3498
sS'PA443897'
p3499
S'Diaphragmatic Eventration'
p3500
sS'PA443895'
p3501
S'Diabetic Retinopathy'
p3502
sS'PA443894'
p3503
S'Diabetic Neuropathies'
p3504
sS'PA445828'
p3505
S'Testicular Neoplasms'
p3506
sS'PA445829'
p3507
S'Tetanus'
p3508
sS'PA443434'
p3509
S'Arthritis, Rheumatoid'
p3510
sS'PA445825'
p3511
S'Teratoma'
p3512
sS'PA445826'
p3513
S'Testicular Diseases'
p3514
sS'PA445827'
p3515
S'Androgen-Insensitivity Syndrome'
p3516
sS'PA445821'
p3517
S'Tendinopathy'
p3518
sS'PA165960681'
p3519
S'Apathy'
p3520
sS'PA444840'
p3521
S'Lymphoma'
p3522
sS'PA444845'
p3523
S'Lymphoma, Non-Hodgkin'
p3524
sS'PA446759'
p3525
S'Ventricular Dysfunction'
p3526
sS'PA446758'
p3527
S'Systemic Inflammatory Response Syndrome'
p3528
sS'PA444849'
p3529
S'Lymphoproliferative Disorders'
p3530
sS'PA444848'
p3531
S'Lymphopenia'
p3532
sS'PA446752'
p3533
S'Hypoplastic Left Heart Syndrome'
p3534
sS'PA446751'
p3535
S'Pulmonary Atresia'
p3536
sS'PA443430'
p3537
S'Arthritis'
p3538
sS'PA165109054'
p3539
S'Vaginitis unspecified'
p3540
sS'PA446594'
p3541
S'Chondrosarcoma, Mesenchymal'
p3542
sS'PA446591'
p3543
S'Liposarcoma, Myxoid'
p3544
sS'PA446590'
p3545
S'Angiomyolipoma'
p3546
sS'PA165108437'
p3547
S'Vasomotor rhinitis'
p3548
sS'PA444998'
p3549
S'Muscular Dystrophies'
p3550
sS'PA444997'
p3551
S'Muscular Diseases'
p3552
sS'PA444996'
p3553
S'Muscular Atrophy, Spinal'
p3554
sS'PA444995'
p3555
S'Muscular Atrophy'
p3556
sS'PA444994'
p3557
S'Muscle Spasticity'
p3558
sS'PA444993'
p3559
S'Muscle Rigidity'
p3560
sS'PA445299'
p3561
S'Aggressive Periodontitis'
p3562
sS'PA444990'
p3563
S'Muscle Cramp'
p3564
sS'PA445728'
p3565
S'Sprains and Strains'
p3566
sS'PA444206'
p3567
S'Food Hypersensitivity'
p3568
sS'PA444205'
p3569
S'Folliculitis'
p3570
sS'PA444203'
p3571
S'Folic Acid Deficiency'
p3572
sS'PA444200'
p3573
S'Focal Dermal Hypoplasia'
p3574
sS'PA445723'
p3575
S'Spondylitis'
p3576
sS'PA165108877'
p3577
S'Male genital organ disease NOS'
p3578
sS'PA166123026'
p3579
S'progression-free survival'
p3580
sS'PA444208'
p3581
S'Foot Deformities'
p3582
sS'PA446680'
p3583
S'Neoplasms, Squamous Cell'
p3584
sS'PA447212'
p3585
S'Panic Disorder'
p3586
sS'PA446685'
p3587
S'Sex Cord-Gonadal Stromal Tumors'
p3588
sS'PA446687'
p3589
S'Gliosarcoma'
p3590
sS'PA446688'
p3591
S'Nerve Sheath Neoplasms'
p3592
sS'PA445687'
p3593
S'Sleep Apnea Syndromes'
p3594
sS'PA165108860'
p3595
S'Vulvovaginitis unspecified'
p3596
sS'PA444636'
p3597
S'Intestinal Obstruction'
p3598
sS'PA165108968'
p3599
S'Tuberculosis of gastrointestinal tract NOS'
p3600
sS'PA165108456'
p3601
S'Refeeding syndrome'
p3602
sS'PA162373094'
p3603
S'Larsen Syndrome'
p3604
sS'PA447216'
p3605
S'Schizophrenia'
p3606
sS'PA445056'
p3607
S'Neoplastic Cells, Circulating'
p3608
sS'PA445582'
p3609
S'Rupture'
p3610
sS'PA445486'
p3611
S'Pyoderma'
p3612
sS'PA166048928'
p3613
S'Dracunculiasis'
p3614
sS'PA166048929'
p3615
S'Larva Migrans'
p3616
sS'PA445483'
p3617
S'Pyelonephritis'
p3618
sS'PA446994'
p3619
S'Myasthenic Syndromes, Congenital'
p3620
sS'PA445058'
p3621
S'Neoplasm Metastasis'
p3622
sS'PA166048922'
p3623
S'Lithiasis'
p3624
sS'PA166048923'
p3625
S'Osteolysis'
p3626
sS'PA166048920'
p3627
S'Anemia, Hypochromic'
p3628
sS'PA166048921'
p3629
S'Positive-Pressure Respiration, Intrinsic'
p3630
sS'PA166048926'
p3631
S'Lead Poisoning, Nervous System, Childhood'
p3632
sS'PA166048927'
p3633
S'Colitis, Ischemic'
p3634
sS'PA166048924'
p3635
S'Hypertension, Portal'
p3636
sS'PA166048925'
p3637
S'Dry Eye Syndromes'
p3638
sS'PA444339'
p3639
S'Hallucinations'
p3640
sS'PA444338'
p3641
S'Pantothenate Kinase-Associated Neurodegeneration'
p3642
sS'PA166123366'
p3643
S'event-free survival'
p3644
sS'PA166123368'
p3645
S'schizoaffective disorder'
p3646
sS'PA444332'
p3647
S'Gynecomastia'
p3648
sS'PA165108913'
p3649
S'Volume depletion NOS'
p3650
sS'PA444330'
p3651
S'Growth Disorders'
p3652
sS'PA444505'
p3653
S'Hydrophthalmos'
p3654
sS'PA446977'
p3655
S'Arsenic Poisoning'
p3656
sS'PA446975'
p3657
S'Neurotoxicity Syndromes'
p3658
sS'PA446974'
p3659
S'Choroidal Neovascularization'
p3660
sS'PA446971'
p3661
S'Gastric Antral Vascular Ectasia'
p3662
sS'PA446970'
p3663
S'Postoperative Nausea and Vomiting'
p3664
sS'PA444507'
p3665
S'Hydrothorax'
p3666
sS'PA153619780'
p3667
S'Sitosterolemia'
p3668
sS'PA445558'
p3669
S'Rhinitis, Allergic, Perennial'
p3670
sS'PA165108581'
p3671
S'X-linked hyper-IgM syndrome'
p3672
sS'PA444055'
p3673
S'Ependymoma'
p3674
sS'PA444052'
p3675
S'Enuresis'
p3676
sS'PA444053'
p3677
S'Eosinophilia'
p3678
sS'PA166048818'
p3679
S'Urethral Diseases'
p3680
sS'PA166048819'
p3681
S'Acidosis, Respiratory'
p3682
sS'PA166048816'
p3683
S'Iris Diseases'
p3684
sS'PA445551'
p3685
S'Rhabdomyosarcoma'
p3686
sS'PA166048814'
p3687
S'Hyperuricemia'
p3688
sS'PA166048815'
p3689
S'Blood Loss, Surgical'
p3690
sS'PA166048812'
p3691
S'Jet Lag Syndrome'
p3692
sS'PA166048813'
p3693
S'Kidney Tubular Necrosis, Acute'
p3694
sS'PA446413'
p3695
S'Polycystic Kidney, Autosomal Dominant'
p3696
sS'PA444059'
p3697
S'Epidermal Necrolysis, Toxic'
p3698
sS'PA446997'
p3699
S'Intracranial Hemorrhages'
p3700
sS'PA166123298'
p3701
S'over-anticoagulation'
p3702
sS'PA446021'
p3703
S'Vascular Diseases'
p3704
sS'PA446020'
p3705
S'Varicose Veins'
p3706
sS'PA165109109'
p3707
S'Retained menstruation'
p3708
sS'PA165109108'
p3709
S'Vulvar vestibulitis'
p3710
sS'PA165109107'
p3711
S'Torsion of testis unspecified'
p3712
sS'PA165109106'
p3713
S'Unspecified affective personality disorder'
p3714
sS'PA165109105'
p3715
S'Orofacial granulomatosis'
p3716
sS'PA165109104'
p3717
S"Bell's palsy"
p3718
sS'PA165109103'
p3719
S'Amoebic dysentery'
p3720
sS'PA165109102'
p3721
S'Natal tooth'
p3722
sS'PA165109101'
p3723
S'Xanthomatosis, familial'
p3724
sS'PA165109100'
p3725
S'Spinal cord compression NOS'
p3726
sS'PA445635'
p3727
S'Serum Sickness'
p3728
sS'PA445637'
p3729
S'Sex Chromosome Aberrations'
p3730
sS'PA445631'
p3731
S'Sensation Disorders'
p3732
sS'PA445633'
p3733
S'Serositis'
p3734
sS'PA445632'
p3735
S'Septicemia'
p3736
sS'PA164925725'
p3737
S'Toxic liver disease'
p3738
sS'PA165108287'
p3739
S'Papillon-Lef\xc3\x83\xc2\xa8vre syndrome'
p3740
sS'PA165108450'
p3741
S'Prolonged pregnancy NOS'
p3742
sS'PA166048758'
p3743
S'Facial Dermatoses'
p3744
sS'PA165108748'
p3745
S'Listeriosis NOS'
p3746
sS'PA165108749'
p3747
S'Deficiency of amylo-1,6-glucosidase'
p3748
sS'PA446284'
p3749
S'Spinal Dysraphism'
p3750
sS'PA165108742'
p3751
S'Operation wound disruption NOS'
p3752
sS'PA165108743'
p3753
S'Carotid artery injury, unspecified'
p3754
sS'PA446113'
p3755
S'Cholangitis, Sclerosing'
p3756
sS'PA446112'
p3757
S'Smoke Inhalation Injury'
p3758
sS'PA165108746'
p3759
S'Shared paranoid disorder'
p3760
sS'PA446114'
p3761
S'Arthritis, Gouty'
p3762
sS'PA165108744'
p3763
S'Candidal vulvovaginitis NOS'
p3764
sS'PA165108745'
p3765
S'Hyperostosis interna frontalis'
p3766
sS'PA445129'
p3767
S'Night Blindness'
p3768
sS'PA443691'
p3769
S'Chediak-Higashi Syndrome'
p3770
sS'PA446286'
p3771
S'Spina Bifida Cystica'
p3772
sS'PA166048754'
p3773
S'Glucosephosphate Dehydrogenase Deficiency'
p3774
sS'PA445120'
p3775
S'Noma'
p3776
sS'PA445123'
p3777
S'Noonan Syndrome'
p3778
sS'PA166048757'
p3779
S'Chlamydiaceae Infections'
p3780
sS'PA445127'
p3781
S'Nutrition Disorders'
p3782
sS'PA165108633'
p3783
S'Impulse control disorder NOS'
p3784
sS'PA165108288'
p3785
S'Unspecified paranoid schizophrenia'
p3786
sS'PA446287'
p3787
S'Holoprosencephaly'
p3788
sS'PA165108631'
p3789
S'Lown-Ganong-Levine syndrome'
p3790
sS'PA166048750'
p3791
S'Impotence, Vasculogenic'
p3792
sS'PA165108881'
p3793
S'Unspecified corneal edema'
p3794
sS'PA166048753'
p3795
S'Purpura, Thrombocytopenic'
p3796
sS'PA165108880'
p3797
S'Otitis externa NOS'
p3798
sS'PA446166'
p3799
S'Precursor T-Cell Lymphoblastic Leukemia-Lymphoma'
p3800
sS'PA447127'
p3801
S'Lewy Body Disease'
p3802
sS'PA164924624'
p3803
S'Pelvic Floor Disorders'
p3804
sS'PA446167'
p3805
S'Leukemia-Lymphoma, Adult T-Cell'
p3806
sS'PA165108528'
p3807
S'Deficiency of mevalonate kinase'
p3808
sS'PA443283'
p3809
S'Adrenocortical Hyperfunction'
p3810
sS'PA165108526'
p3811
S'Postural orthostatic tachycardia syndrome'
p3812
sS'PA165108527'
p3813
S'Drug-induced chronic hepatitis'
p3814
sS'PA165108524'
p3815
S'Rhesus isoimmunization unspecified'
p3816
sS'PA165108525'
p3817
S'Environmental allergy'
p3818
sS'PA165108522'
p3819
S"Wernicke's disease"
p3820
sS'PA165108523'
p3821
S"Volkmann's ischemic contracture following injury"
p3822
sS'PA165108520'
p3823
S'Hypersensitivity pneumonitis NOS'
p3824
sS'PA165108521'
p3825
S'Chronic periodontitis NOS'
p3826
sS'PA165108367'
p3827
S'White blood cell disease NOS'
p3828
sS'PA165108731'
p3829
S'Median nerve lesions NOS'
p3830
sS'PA446205'
p3831
S'Histiocytosis'
p3832
sS'PA165108360'
p3833
S'Atony of uterus'
p3834
sS'PA446207'
p3835
S'Histiocytosis, Non-Langerhans-Cell'
p3836
sS'PA446163'
p3837
S'Leukemia, Biphenotypic, Acute'
p3838
sS'PA446201'
p3839
S'Retinal Drusen'
p3840
sS'PA446200'
p3841
S'Hyperostosis'
p3842
sS'PA165108529'
p3843
S'Herpes gestationis unspecified'
p3844
sS'PA446043'
p3845
S'Vitamin B 12 Deficiency'
p3846
sS'PA445019'
p3847
S'Myocardial Infarction'
p3848
sS'PA447288'
p3849
S'Essential hypertension'
p3850
sS'PA445015'
p3851
S'Primary Myelofibrosis'
p3852
sS'PA445016'
p3853
S'Myeloproliferative Disorders'
p3854
sS'PA445011'
p3855
S'Myelitis'
p3856
sS'PA445010'
p3857
S'Mycosis Fungoides'
p3858
sS'PA445013'
p3859
S'Myelodysplastic Syndromes'
p3860
sS'PA444544'
p3861
S'Hyperplasia'
p3862
sS'PA444545'
p3863
S'Hyperprolactinemia'
p3864
sS'PA444546'
p3865
S'Hypersensitivity'
p3866
sS'PA444547'
p3867
S'Hypersensitivity, Delayed'
p3868
sS'PA444540'
p3869
S'Hyperparathyroidism'
p3870
sS'PA444541'
p3871
S'Hyperparathyroidism, Secondary'
p3872
sS'PA444542'
p3873
S'Hyperphagia'
p3874
sS'PA444543'
p3875
S'Hyperpituitarism'
p3876
sS'PA446047'
p3877
S'Vitiligo'
p3878
sS'PA444548'
p3879
S'Hypersensitivity, Immediate'
p3880
sS'PA444549'
p3881
S'Disorders of Excessive Somnolence'
p3882
sS'PA446046'
p3883
S'Vitamin K Deficiency'
p3884
sS'PA445376'
p3885
S'Polycystic Ovary Syndrome'
p3886
sS'PA134850491'
p3887
S'Transplantation'
p3888
sS'PA445093'
p3889
S'Nervous System Diseases'
p3890
sS'PA447085'
p3891
S'Photophobia'
p3892
sS'PA447087'
p3893
S'Encephalitis, Herpes Simplex'
p3894
sS'PA447082'
p3895
S'Bardet-Biedl Syndrome'
p3896
sS'PA166119041'
p3897
S'drug-induced liver injury'
p3898
sS'PA165108412'
p3899
S'Hypolipoproteinemia'
p3900
sS'PA165108413'
p3901
S'Biotin-(propionyl-CoA-carboxylase) ligase deficiency'
p3902
sS'PA165108410'
p3903
S'Blastomycotic infection NOS'
p3904
sS'PA165108411'
p3905
S'Amebiasis NOS'
p3906
sS'PA165108416'
p3907
S'Anterior spinal artery occlusion syndrome'
p3908
sS'PA446430'
p3909
S'Common Variable Immunodeficiency'
p3910
sS'PA165108414'
p3911
S'Myoclonus epilepsy AND ragged red fibers'
p3912
sS'PA165108415'
p3913
S'Heartwater'
p3914
sS'PA443796'
p3915
S'Coronary Artery Disease'
p3916
sS'PA447128'
p3917
S'Embryo Loss'
p3918
sS'PA443790'
p3919
S'Cor Triatriatum'
p3920
sS'PA162370424'
p3921
S'Primary Failure of Tooth Eruption'
p3922
sS'PA443792'
p3923
S'Corneal Dystrophies, Hereditary'
p3924
sS'PA443793'
p3925
S'Corneal Opacity'
p3926
sS'PA446370'
p3927
S'Pneumocystis Infections'
p3928
sS'PA446373'
p3929
S'Orbital Pseudotumor'
p3930
sS'PA446372'
p3931
S'Plasma Cell Granuloma, Pulmonary'
p3932
sS'PA443408'
p3933
S'Appendiceal Neoplasms'
p3934
sS'PA446374'
p3935
S'Erythema Infectiosum'
p3936
sS'PA165817398'
p3937
S'Myelosuppression'
p3938
sS'PA446376'
p3939
S'Alagille Syndrome'
p3940
sS'PA446379'
p3941
S'Death, Sudden, Cardiac'
p3942
sS'PA443407'
p3943
S'Apnea'
p3944
sS'PA443401'
p3945
S'Aphakia'
p3946
sS'PA443403'
p3947
S'Aphasia'
p3948
sS'PA445301'
p3949
S'Peripheral Nervous System Diseases'
p3950
sS'PA445303'
p3951
S'Peritoneal Diseases'
p3952
sS'PA445305'
p3953
S'Peritonitis'
p3954
sS'PA445307'
p3955
S'Peutz-Jeghers Syndrome'
p3956
sS'PA443224'
p3957
S'Abnormalities, Drug-Induced'
p3958
sS'PA443225'
p3959
S'Abnormalities, Multiple'
p3960
sS'PA443227'
p3961
S'Abortion, Spontaneous'
p3962
sS'PA153627493'
p3963
S'Autoimmune Thyroid Disease'
p3964
sS'PA443222'
p3965
S'Abetalipoproteinemia'
p3966
sS'PA443223'
p3967
S'Congenital Abnormalities'
p3968
sS'PA166120927'
p3969
S'drug reaction with eosinophilia and systemic symptoms'
p3970
sS'PA166120926'
p3971
S'dress syndrome'
p3972
sS'PA443228'
p3973
S'Abortion, Habitual'
p3974
sS'PA165108563'
p3975
S'Tooth malformation'
p3976
sS'PA445901'
p3977
S'Toxemia'
p3978
sS'PA165108254'
p3979
S'Eaton-Lambert syndrome'
p3980
sS'PA165108255'
p3981
S'Idiopathic livedo reticularis with systemic involvement'
p3982
sS'PA165108256'
p3983
S'Phlebotomus fever NOS'
p3984
sS'PA165108257'
p3985
S'Autonomic dysreflexia'
p3986
sS'PA165108250'
p3987
S'Oculodermal melanocytosis'
p3988
sS'PA165108251'
p3989
S'Rheumatoid pneumoconiosis'
p3990
sS'PA165108252'
p3991
S'Acute necrotizing pancreatitis'
p3992
sS'PA447159'
p3993
S'Metabolic Syndrome X'
p3994
sS'PA447157'
p3995
S'Cardiomyopathy, Hypertrophic, Familial'
p3996
sS'PA447154'
p3997
S'Sarcoma, Myeloid'
p3998
sS'PA145007200'
p3999
S'Coenzyme Q10 Deficiency, Primary'
p4000
sS'PA447152'
p4001
S'Coronary Stenosis'
p4002
sS'PA165108259'
p4003
S'Plexiform neurofibroma'
p4004
sS'PA145007205'
p4005
S'spondylocostal dysostoses (SCDs)'
p4006
sS'PA443311'
p4007
S'Alkalosis'
p4008
sS'PA443313'
p4009
S'Alkaptonuria'
p4010
sS'PA443314'
p4011
S'Alopecia'
p4012
sS'PA443315'
p4013
S'Alopecia Areata'
p4014
sS'PA445900'
p4015
S'Torticollis'
p4016
sS'PA443319'
p4017
S'Alzheimer Disease'
p4018
sS'PA445659'
p4019
S'Sick Sinus Syndrome'
p4020
sS'PA162652718'
p4021
S'Cryptococcus neoformans'
p4022
sS'PA445838'
p4023
S'Thinness'
p4024
sS'PA445837'
p4025
S'Thiamine Deficiency'
p4026
sS'PA445835'
p4027
S'Thecoma'
p4028
sS'PA445834'
p4029
S'Thanatophoric Dysplasia'
p4030
sS'PA445833'
p4031
S'Thalassemia'
p4032
sS'PA445831'
p4033
S'Tetralogy of Fallot'
p4034
sS'PA444835'
p4035
S'Lymphedema'
p4036
sS'PA446760'
p4037
S'Multiple Endocrine Neoplasia Type 1'
p4038
sS'PA446761'
p4039
S'Arthralgia'
p4040
sS'PA446766'
p4041
S'Abdominal Abscess'
p4042
sS'PA446767'
p4043
S'Tricuspid Atresia'
p4044
sS'PA446764'
p4045
S'Tension-Type Headache'
p4046
sS'PA444833'
p4047
S'Lymphatic Diseases'
p4048
sS'PA446768'
p4049
S'Encephalitis, Viral'
p4050
sS'PA446769'
p4051
S'Anemia, Iron-Deficiency'
p4052
sS'PA444838'
p4053
S'Lymphocytosis'
p4054
sS'PA446560'
p4055
S'Glucose Intolerance'
p4056
sS'PA165108253'
p4057
S'Unspecified abdominal cavity hernia NOS'
p4058
sS'PA165108867'
p4059
S'African horse sickness'
p4060
sS'PA162355648'
p4061
S'microvillus inclusion disease'
p4062
sS'PA445555'
p4063
S'Rheumatic Diseases'
p4064
sS'PA444949'
p4065
S'Migraine without Aura'
p4066
sS'PA444239'
p4067
S'Galactorrhea'
p4068
sS'PA444233'
p4069
S'Fucosidosis'
p4070
sS'PA444942'
p4071
S'Methemoglobinemia'
p4072
sS'PA444231'
p4073
S'Fructose Intolerance'
p4074
sS'PA444944'
p4075
S'Microcephaly'
p4076
sS'PA444234'
p4077
S'Funnel Chest'
p4078
sS'PA444235'
p4079
S'Furunculosis'
p4080
sS'PA446071'
p4081
S'Whiplash Injuries'
p4082
sS'PA445556'
p4083
S'Rheumatoid Nodule'
p4084
sS'PA165108865'
p4085
S'Antisocial personality disorder'
p4086
sS'PA445499'
p4087
S'Raynaud Disease'
p4088
sS'PA447242'
p4089
S'epithelial cancers'
p4090
sS'PA445491'
p4091
S'Radiation Injuries'
p4092
sS'PA445557'
p4093
S'Rhinitis'
p4094
sS'PA165108265'
p4095
S'Rhinoscleroma'
p4096
sS'PA165108128'
p4097
S'Allergic purpura NOS'
p4098
sS'PA165108864'
p4099
S'Traumatic diaphragmatic hernia'
p4100
sS'PA447241'
p4101
S'thrombolytic disease'
p4102
sS'PA165816410'
p4103
S'Aromatase inhibitor-associated musculoskeletal syndrome'
p4104
sS'PA447247'
p4105
S'liver transplantation'
p4106
sS'PA444307'
p4107
S'Goiter'
p4108
sS'PA444305'
p4109
S'Glycosuria'
p4110
sS'PA444302'
p4111
S'Glycogen Storage Disease Type VI'
p4112
sS'PA444301'
p4113
S'Glycogen Storage Disease Type V'
p4114
sS'PA446788'
p4115
S'Muscle Weakness'
p4116
sS'PA446780'
p4117
S'Atrial Premature Complexes'
p4118
sS'PA446781'
p4119
S'Heat Stress Disorders'
p4120
sS'PA446782'
p4121
S'Heat Stroke'
p4122
sS'PA446786'
p4123
S'Peroxisomal Disorders'
p4124
sS'PA446787'
p4125
S'Chondrodysplasia Punctata, Rhizomelic'
p4126
sS'PA151958647'
p4127
S'Corticobasal degeneration'
p4128
sS'PA151958646'
p4129
S'FTDP-17'
p4130
sS'PA151958645'
p4131
S'Argyrophilic Grain Disease (AGD)'
p4132
sS'PA151958644'
p4133
S'Cerebral Hemorrhage with Amyloidosis,Hereditary,Dutch Type (HCHWAD)'
p4134
sS'PA151958642'
p4135
S'FTLD'
p4136
sS'PA165108949'
p4137
S'Single lung cyst'
p4138
sS'PA447058'
p4139
S'Multiple Sclerosis, Relapsing-Remitting'
p4140
sS'PA444040'
p4141
S'Endometriosis'
p4142
sS'PA444047'
p4143
S'Enterocolitis'
p4144
sS'PA446737'
p4145
S'Ventricular Dysfunction, Left'
p4146
sS'PA445549'
p4147
S'Rhabdomyolysis'
p4148
sS'PA445388'
p4149
S'Porphyrias'
p4150
sS'PA445541'
p4151
S'Retrognathism'
p4152
sS'PA445547'
p4153
S'Reye Syndrome'
p4154
sS'PA445546'
p4155
S'Retroviridae Infections'
p4156
sS'PA165109118'
p4157
S'Macrocytic anemia of unspecified cause'
p4158
sS'PA165109119'
p4159
S'Mousepox'
p4160
sS'PA165109114'
p4161
S'Paraphimosis'
p4162
sS'PA165109115'
p4163
S'Vaginal disorder NOS'
p4164
sS'PA165109116'
p4165
S'Endocrine gland disease NOS'
p4166
sS'PA165109117'
p4167
S'Muscle phosphofructokinase deficiency'
p4168
sS'PA165109110'
p4169
S'Acute ulcerative gingivitis'
p4170
sS'PA165109111'
p4171
S'Insulin coma'
p4172
sS'PA165109112'
p4173
S'Lafora disease'
p4174
sS'PA165109113'
p4175
S'Proteus infection NOS'
p4176
sS'PA444502'
p4177
S'Hydrocephalus'
p4178
sS'PA166124223'
p4179
S'pneumonitis'
p4180
sS'PA445382'
p4181
S'Polyps'
p4182
sS'PA444890'
p4183
S'Measles'
p4184
sS'PA165108889'
p4185
S'Favism'
p4186
sS'PA165108888'
p4187
S'Disorder of phosphorus metabolism NOS'
p4188
sS'PA446168'
p4189
S'Leukemia, Prolymphocytic, T-Cell'
p4190
sS'PA446169'
p4191
S'Leukemia, Lymphocytic, Chronic, B-Cell'
p4192
sS'PA165108739'
p4193
S'Relapsing pancreatitis'
p4194
sS'PA165108738'
p4195
S'Food poisoning NOS'
p4196
sS'PA165108737'
p4197
S'Glossitis NOS'
p4198
sS'PA446165'
p4199
S'Leukemia, T-Cell'
p4200
sS'PA165108883'
p4201
S'Cardiac dysrhythmia NOS'
p4202
sS'PA165108882'
p4203
S'Effects of lightning NOS'
p4204
sS'PA165108733'
p4205
S'Curvature of spine, unspecified'
p4206
sS'PA165108732'
p4207
S'Eyelid disorder NOS'
p4208
sS'PA165108887'
p4209
S'Helminthiasis NOS'
p4210
sS'PA165108886'
p4211
S'Allantoic cyst'
p4212
sS'PA445159'
p4213
S'Oral Manifestations'
p4214
sS'PA153906318'
p4215
S'Autism Spectrum Disorder'
p4216
sS'PA445155'
p4217
S'Opportunistic Infections'
p4218
sS'PA445156'
p4219
S'Optic Atrophy'
p4220
sS'PA445157'
p4221
S'Optic Nerve Diseases'
p4222
sS'PA445150'
p4223
S'Endophthalmitis'
p4224
sS'PA445153'
p4225
S'Ophthalmoplegia'
p4226
sS'PA166048748'
p4227
S'Tinea'
p4228
sS'PA445792'
p4229
S'Sarcoma, Synovial'
p4230
sS'PA445793'
p4231
S'Synovitis'
p4232
sS'PA445790'
p4233
S'Synostosis'
p4234
sS'PA445795'
p4235
S'Syphilis'
p4236
sS'PA165108446'
p4237
S'Rhinophyma'
p4238
sS'PA165108643'
p4239
S'Synovial chondromatosis'
p4240
sS'PA165108642'
p4241
S'Malignant melanoma of soft tissues'
p4242
sS'PA165108641'
p4243
S'Acatalasia'
p4244
sS'PA165108640'
p4245
S'Salivary gland disease NOS'
p4246
sS'PA165108647'
p4247
S'Acquired epileptic aphasia'
p4248
sS'PA165108646'
p4249
S'Voyeurism'
p4250
sS'PA165108645'
p4251
S'Anal ulcer unspecified'
p4252
sS'PA165108644'
p4253
S'Leukoplakia of vulva'
p4254
sS'PA165108649'
p4255
S'Lichen nitidus'
p4256
sS'PA165108648'
p4257
S'Paroxysmal hemoglobinuria NOS'
p4258
sS'PA445645'
p4259
S'Shock, Cardiogenic'
p4260
sS'PA444557'
p4261
S'Hypertension, Renovascular'
p4262
sS'PA444556'
p4263
S'Hypertension, Renal'
p4264
sS'PA444555'
p4265
S'Hypertension, Pulmonary'
p4266
sS'PA444552'
p4267
S'Hypertension'
p4268
sS'PA444551'
p4269
S'Hypertelorism'
p4270
sS'PA152545865'
p4271
S'Arts Syndrome'
p4272
sS'PA166122772'
p4273
S'paroxysmal nocturnal hemoglobinuria'
p4274
sS'PA444558'
p4275
S'Hyperthyroidism'
p4276
sS'PA447099'
p4277
S'Chorea'
p4278
sS'PA447098'
p4279
S'Dystonic Disorders'
p4280
sS'PA447097'
p4281
S'Dyskinesias'
p4282
sS'PA165108493'
p4283
S'Xanthogranulomatous pyelonephritis'
p4284
sS'PA165108467'
p4285
S'Ocular onchocerciasis'
p4286
sS'PA165108394'
p4287
S'Erythema chronica migrans'
p4288
sS'PA165108465'
p4289
S'Chondrocalcinosis unspecified, of unspecified site'
p4290
sS'PA165108464'
p4291
S'Cementum caries'
p4292
sS'PA165108463'
p4293
S'Hypercementosis'
p4294
sS'PA165108462'
p4295
S'Early onset cerebellar ataxia with myoclonus'
p4296
sS'PA165108461'
p4297
S'Jaw diseases NOS'
p4298
sS'PA165108392'
p4299
S'Cryptococcal meningitis'
p4300
sS'PA443786'
p4301
S'Convalescence'
p4302
sS'PA443785'
p4303
S'Contusions'
p4304
sS'PA443784'
p4305
S'Contracture'
p4306
sS'PA443783'
p4307
S'Constriction, Pathologic'
p4308
sS'PA443782'
p4309
S'Constipation'
p4310
sS'PA165108469'
p4311
S'Pathological tooth resorption NOS'
p4312
sS'PA443780'
p4313
S'Connective Tissue Diseases'
p4314
sS'PA446304'
p4315
S'Lymphoma, B-Cell'
p4316
sS'PA446307'
p4317
S'Lymphoma, Low-Grade'
p4318
sS'PA443419'
p4319
S'Arnold-Chiari Malformation'
p4320
sS'PA446303'
p4321
S'Tooth Loss'
p4322
sS'PA443415'
p4323
S'Arcus Senilis'
p4324
sS'PA446309'
p4325
S'Lymphoma, T-Cell'
p4326
sS'PA443410'
p4327
S'Apraxias'
p4328
sS'PA166048791'
p4329
S'Skin Diseases, Infectious'
p4330
sS'PA166048790'
p4331
S'Pneumococcal Infections'
p4332
sS'PA166048793'
p4333
S'Bartter Syndrome'
p4334
sS'PA166048792'
p4335
S'Hypertension, Malignant'
p4336
sS'PA166048795'
p4337
S'Duodenal Obstruction'
p4338
sS'PA166048794'
p4339
S'Epilepsy, Tonic-Clonic'
p4340
sS'PA166048797'
p4341
S'Emaciation'
p4342
sS'PA166048796'
p4343
S'Ascorbic Acid Deficiency'
p4344
sS'PA166048799'
p4345
S'Brain Damage, Chronic'
p4346
sS'PA166048798'
p4347
S'Community-Acquired Infections'
p4348
sS'PA445378'
p4349
S'Polycythemia Vera'
p4350
sS'PA444069'
p4351
S'Epilepsies, Myoclonic'
p4352
sS'PA443235'
p4353
S'Abscess'
p4354
sS'PA165108491'
p4355
S'Thyroglossal duct cyst'
p4356
sS'PA165108369'
p4357
S'Vaginal trichomoniasis'
p4358
sS'PA443239'
p4359
S'Achlorhydria'
p4360
sS'PA443238'
p4361
S'Acanthosis Nigricans'
p4362
sS'PA165108269'
p4363
S'Marchiafava-Bignami disease'
p4364
sS'PA165108268'
p4365
S'Ankylosis of tooth'
p4366
sS'PA166048779'
p4367
S'Neonate'
p4368
sS'PA166048778'
p4369
S'Preterm Infant'
p4370
sS'PA165108261'
p4371
S"Eisenmenger's defect"
p4372
sS'PA166048772'
p4373
S'Bone Diseases, Infectious'
p4374
sS'PA165108263'
p4375
S'Infectious canine hepatitis'
p4376
sS'PA165108262'
p4377
S'Atrioventricular block unspecified'
p4378
sS'PA166048777'
p4379
S'Adrenal Cortex Diseases'
p4380
sS'PA166048776'
p4381
S'Mycobacterium avium-intracellulare Infection'
p4382
sS'PA166048775'
p4383
S'Acinetobacter Infections'
p4384
sS'PA166048774'
p4385
S'Bacteroides Infections'
p4386
sS'PA447140'
p4387
S'Multicystic Dysplastic Kidney'
p4388
sS'PA447144'
p4389
S'Aortic Stenosis, Supravalvular'
p4390
sS'PA447147'
p4391
S'Lacerations'
p4392
sS'PA447146'
p4393
S'Hyperammonemia'
p4394
sS'PA447149'
p4395
S'Chills'
p4396
sS'PA446411'
p4397
S'Endometrial Neoplasms'
p4398
sS'PA166119021'
p4399
S'contralateral breast cancer'
p4400
sS'PA446414'
p4401
S'Carotid Stenosis'
p4402
sS'PA446415'
p4403
S'Gram-Negative Bacterial Infections'
p4404
sS'PA445208'
p4405
S'Pain'
p4406
sS'PA443302'
p4407
S'Airway Obstruction'
p4408
sS'PA443301'
p4409
S'Ainhum'
p4410
sS'PA443307'
p4411
S'Alcohol Withdrawal Delirium'
p4412
sS'PA443305'
p4413
S'Albuminuria'
p4414
sS'PA443304'
p4415
S'Albinism'
p4416
sS'PA446041'
p4417
S'Vitamin A Deficiency'
p4418
sS'PA445201'
p4419
S'Otosclerosis'
p4420
sS'PA443309'
p4421
S'Alcoholism'
p4422
sS'PA445203'
p4423
S'Ovarian Diseases'
p4424
sS'PA445204'
p4425
S'Ovarian Neoplasms'
p4426
sS'PA445206'
p4427
S"Paget's Disease, Mammary"
p4428
sS'PA445207'
p4429
S"Paget's Disease, Extramammary"
p4430
sS'PA445802'
p4431
S'Tachycardia'
p4432
sS'PA445800'
p4433
S'Syringomyelia'
p4434
sS'PA445806'
p4435
S'Tachycardia, Paroxysmal'
p4436
sS'PA445912'
p4437
S'Tracheoesophageal Fistula'
p4438
sS'PA445808'
p4439
S'Tachycardia, Sinus'
p4440
sS'PA445809'
p4441
S'Tachycardia, Supraventricular'
p4442
sS'PA446774'
p4443
S'Carcinoma, Lewis Lung'
p4444
sS'PA444825'
p4445
S'Lyme Disease'
p4446
sS'PA444824'
p4447
S'Lutembacher Syndrome'
p4448
sS'PA444823'
p4449
S'Lupus Nephritis'
p4450
sS'PA444822'
p4451
S'Lupus Erythematosus, Systemic'
p4452
sS'PA444821'
p4453
S'Lupus Erythematosus, Discoid'
p4454
sS'PA444820'
p4455
S'Lupus Erythematosus, Cutaneous'
p4456
sS'PA446779'
p4457
S'Ventricular Premature Complexes'
p4458
sS'PA165108395'
p4459
S'Sj\xc3\x83\xc2\xb6gren-Larsson syndrome'
p4460
sS'PA446575'
p4461
S'Lymphangioleiomyomatosis'
p4462
sS'PA446574'
p4463
S'Lymphangioma, Cystic'
p4464
sS'PA446579'
p4465
S'Carcinoma, Adenosquamous'
p4466
sS'PA165108397'
p4467
S'Dilated cardiomyopathy secondary to alcohol'
p4468
sS'PA165108396'
p4469
S"Paget's disease OS"
p4470
sS'PA165108691'
p4471
S'Maternal phenylketonuria'
p4472
sS'PA165108391'
p4473
S'Lymph cyst'
p4474
sS'PA446468'
p4475
S'Mitochondrial Myopathies'
p4476
sS'PA445165'
p4477
S'Psittacosis'
p4478
sS'PA444434'
p4479
S'Hepatic Veno-Occlusive Disease'
p4480
sS'PA165108393'
p4481
S'Ostium secundum type atrial septal defect'
p4482
sS'PA165108460'
p4483
S'Postoperative wound infection, unspecified'
p4484
sS'PA444958'
p4485
S'Molluscum Contagiosum'
p4486
sS'PA444229'
p4487
S'Friedreich Ataxia'
p4488
sS'PA165108541'
p4489
S"Heerfordt's syndrome"
p4490
sS'PA444225'
p4491
S'Fractures, Spontaneous'
p4492
sS'PA444952'
p4493
S'Mite Infestations'
p4494
sS'PA444227'
p4495
S'Fragile X Syndrome'
p4496
sS'PA444957'
p4497
S'Adenoma, Pleomorphic'
p4498
sS'PA444220'
p4499
S'Fowlpox'
p4500
sS'PA444955'
p4501
S'Mitral Valve Stenosis'
p4502
sS'PA444222'
p4503
S'Fractures, Bone'
p4504
sS'PA165108543'
p4505
S'Orf virus disease'
p4506
sS'PA165108399'
p4507
S'Oral aphthae NOS'
p4508
sS'PA166123007'
p4509
S'hematopoietic stem cell transplantation'
p4510
sS'PA166123006'
p4511
S'interstitial fibrosis'
p4512
sS'PA165108545'
p4513
S'Catatonic schizophrenia NOS'
p4514
sS'PA165109173'
p4515
S'Unspecified osteomyelitis of unspecified site'
p4516
sS'PA165108468'
p4517
S'Peste des petits ruminants'
p4518
sS'PA446038'
p4519
S'Virus Diseases'
p4520
sS'PA445972'
p4521
S'Typhus, Epidemic Louse-Borne'
p4522
sS'PA445973'
p4523
S'Ulcer'
p4524
sS'PA445970'
p4525
S'Typhoid Fever'
p4526
sS'PA165108734'
p4527
S'Upper limb anomaly, unspecified'
p4528
sS'PA445977'
p4529
S'Uremia'
p4530
sS'PA446044'
p4531
S'Vitamin D Deficiency'
p4532
sS'PA445975'
p4533
S'Unconsciousness'
p4534
sS'PA165108372'
p4535
S'Vesicular exanthema of swine'
p4536
sS'PA166114377'
p4537
S'hand-foot syndrome'
p4538
sS'PA165109175'
p4539
S'Patent foramen ovale'
p4540
sS'PA445917'
p4541
S'Tremor'
p4542
sS'PA445278'
p4543
S'Peptic Ulcer Hemorrhage'
p4544
sS'PA444311'
p4545
S'Goldenhar Syndrome'
p4546
sS'PA444313'
p4547
S'Gonadal Dysgenesis'
p4548
sS'PA446959'
p4549
S'Gait Ataxia'
p4550
sS'PA446958'
p4551
S'Gait Disorders, Neurologic'
p4552
sS'PA444317'
p4553
S'Anti-Glomerular Basement Membrane Disease'
p4554
sS'PA165108495'
p4555
S'Persistent fetal circulation'
p4556
sS'PA444318'
p4557
S'Gout'
p4558
sS'PA446956'
p4559
S'Serotonin Syndrome'
p4560
sS'PA446953'
p4561
S'Sagittal Sinus Thrombosis'
p4562
sS'PA446799'
p4563
S'Prostatic Intraepithelial Neoplasia'
p4564
sS'PA446796'
p4565
S'Muscle Neoplasms'
p4566
sS'PA446795'
p4567
S'Carbohydrate-Deficient Glycoprotein Syndrome'
p4568
sS'PA446794'
p4569
S'Williams Syndrome'
p4570
sS'PA159018367'
p4571
S'Brugada syndrome'
p4572
sS'PA444039'
p4573
S'Endometrial Hyperplasia'
p4574
sS'PA444034'
p4575
S'Endocarditis'
p4576
sS'PA444035'
p4577
S'Endocarditis, Bacterial'
p4578
sS'PA444037'
p4579
S'Endocrine System Diseases'
p4580
sS'PA444032'
p4581
S'Endocardial Cushion Defects'
p4582
sS'PA444033'
p4583
S'Endocardial Fibroelastosis'
p4584
sS'PA445742'
p4585
S'Stomach Neoplasms'
p4586
sS'PA445578'
p4587
S'Rotavirus Infections'
p4588
sS'PA445375'
p4589
S'Polychondritis, Relapsing'
p4590
sS'PA446467'
p4591
S'Mitochondrial Encephalomyopathies'
p4592
sS'PA443554'
p4593
S'Brain Diseases, Metabolic'
p4594
sS'PA445744'
p4595
S'Stomach Ulcer'
p4596
sS'PA443555'
p4597
S'Brain Edema'
p4598
sS'PA445371'
p4599
S'Poisoning'
p4600
sS'PA165109121'
p4601
S'Congenital hyperammonemia, type I'
p4602
sS'PA165109120'
p4603
S'Scrub typhus'
p4604
sS'PA165109123'
p4605
S'Presenile gangrene'
p4606
sS'PA165109122'
p4607
S'Smith-Lemli-Opitz syndrome'
p4608
sS'PA165109125'
p4609
S"Wernicke's dysphasia"
p4610
sS'PA165109124'
p4611
S'Atypical interstitial pneumonia of cattle'
p4612
sS'PA165109127'
p4613
S'Hemolytic disease due to isoimmunization NOS'
p4614
sS'PA165109126'
p4615
S'Fetal-maternal hemorrhage NOS'
p4616
sS'PA165109129'
p4617
S'Atrioventricular block NOS'
p4618
sS'PA165109128'
p4619
S'Plummer-Vinson syndrome'
p4620
sS'PA445373'
p4621
S'Poliomyelitis'
p4622
sS'PA444786'
p4623
S'Whipple Disease'
p4624
sS'PA444787'
p4625
S'Lipidoses'
p4626
sS'PA444784'
p4627
S'Mucopolysaccharidosis I'
p4628
sS'PA444785'
p4629
S'Lipodystrophy'
p4630
sS'PA444788'
p4631
S'Lipoid Proteinosis of Urbach and Wiethe'
p4632
sS'PA444789'
p4633
S'Lipoma'
p4634
sS'PA444142'
p4635
S'Failure to Thrive'
p4636
sS'PA165108249'
p4637
S'Solitary cutaneous mastocytoma'
p4638
sS'PA444144'
p4639
S'Fallopian Tube Neoplasms'
p4640
sS'PA444145'
p4641
S'Fanconi Syndrome'
p4642
sS'PA444146'
p4643
S'Fanconi Anemia'
p4644
sS'PA444148'
p4645
S'Fasciculation'
p4646
sS'PA445077'
p4647
S'Paraneoplastic Endocrine Syndromes'
p4648
sS'PA445379'
p4649
S'Polymyalgia Rheumatica'
p4650
sS'PA443374'
p4651
S'Ankylosis'
p4652
sS'PA445074'
p4653
S'Neoplasms, Radiation-Induced'
p4654
sS'PA165108248'
p4655
S'Accretions on teeth NOS'
p4656
sS'PA145007173'
p4657
S'Mental Retardation, X-Linked, Nonsyndromic'
p4658
sS'PA165108728'
p4659
S'Selective immunoglobulin G deficiency'
p4660
sS'PA165108729'
p4661
S'Tarsal tunnel syndrome'
p4662
sS'PA446179'
p4663
S'Leukemia, Eosinophilic, Acute'
p4664
sS'PA145007176'
p4665
S'CHARGE syndrome'
p4666
sS'PA165108896'
p4667
S'Ichthyosis bullosa of Siemens'
p4668
sS'PA165108725'
p4669
S"Monckeberg's medial sclerosis"
p4670
sS'PA165108726'
p4671
S'Congenital total lipodystrophy'
p4672
sS'PA165108727'
p4673
S'Anthracosilicosis'
p4674
sS'PA165108892'
p4675
S'Dislocation of knee NOS'
p4676
sS'PA165108721'
p4677
S'Erosion of teeth NOS'
p4678
sS'PA165108722'
p4679
S'Hysteria unspecified'
p4680
sS'PA165108723'
p4681
S'Abnormal tooth spacing NOS'
p4682
sS'PA162316739'
p4683
S'Maculopapular Exanthema'
p4684
sS'PA445149'
p4685
S'Oophoritis'
p4686
sS'PA445147'
p4687
S'Olivopontocerebellar Atrophies'
p4688
sS'PA445146'
p4689
S'Oliguria'
p4690
sS'PA445145'
p4691
S'Oligospermia'
p4692
sS'PA445143'
p4693
S'Oligodendroglioma'
p4694
sS'PA161411144'
p4695
S'Degeneration of lumbar intervertebral disc'
p4696
sS'PA444496'
p4697
S'Hydatidiform Mole'
p4698
sS'PA444497'
p4699
S'Polyhydramnios'
p4700
sS'PA444494'
p4701
S'Huntington Disease'
p4702
sS'PA444495'
p4703
S'Hyaline Membrane Disease'
p4704
sS'PA445789'
p4705
S'Syndrome'
p4706
sS'PA445788'
p4707
S'Syndactyly'
p4708
sS'PA444490'
p4709
S'Horner Syndrome'
p4710
sS'PA445787'
p4711
S'Syncope'
p4712
sS'PA447240'
p4713
S'Peptic Ulcer'
p4714
sS'PA444498'
p4715
S'Hydranencephaly'
p4716
sS'PA165108893'
p4717
S'Prinzmetal angina'
p4718
sS'PA165108740'
p4719
S'Sleep-related dystonia'
p4720
sS'PA445485'
p4721
S'Pyloric Stenosis'
p4722
sS'PA165374639'
p4723
S'suicide'
p4724
sS'PA447310'
p4725
S'Vision Disorders'
p4726
sS'PA165108650'
p4727
S'Oral submucosal fibrosis'
p4728
sS'PA165108651'
p4729
S'Pleural fibroma'
p4730
sS'PA165108890'
p4731
S'Mongolian spot'
p4732
sS'PA165108653'
p4733
S'Acute necrotizing ulcerative gingivostomatitis'
p4734
sS'PA165108654'
p4735
S'Infection by Trichuris trichiura'
p4736
sS'PA165108655'
p4737
S'Cyclosporiasis'
p4738
sS'PA165108656'
p4739
S'Muir-Torr\xc3\x83\xc2\xa9 syndrome'
p4740
sS'PA165108657'
p4741
S'Postvaricella encephalitis'
p4742
sS'PA165108658'
p4743
S'Cervical incompetence unspecified'
p4744
sS'PA165108659'
p4745
S'Glycogen storage disease, type VII'
p4746
sS'PA152530810'
p4747
S'Corpus Callosum, Agenisis Of'
p4748
sS'PA166122208'
p4749
S'musculoskeletal pain'
p4750
sS'PA444568'
p4751
S'Hypocalcemia'
p4752
sS'PA444562'
p4753
S'Hyperventilation'
p4754
sS'PA444563'
p4755
S'Hypervitaminosis A'
p4756
sS'PA444560'
p4757
S'Hypertrichosis'
p4758
sS'PA444561'
p4759
S'Hypertrophy'
p4760
sS'PA444566'
p4761
S'Hypoaldosteronism'
p4762
sS'PA444567'
p4763
S'Hypobetalipoproteinemias'
p4764
sS'PA444564'
p4765
S'Hypesthesia'
p4766
sS'PA444565'
p4767
S'Hyphema'
p4768
sS'PA444768'
p4769
S'Leukodystrophy, Globoid Cell'
p4770
sS'PA446832'
p4771
S'Endotoxemia'
p4772
sS'PA444760'
p4773
S'Leukemia, Myeloid, Acute'
p4774
sS'PA444761'
p4775
S'Leukemia, Myeloid'
p4776
sS'PA444762'
p4777
S'Leukemia, Plasma Cell'
p4778
sS'PA444767'
p4779
S'Leukocytosis'
p4780
sS'PA165108388'
p4781
S'Omsk hemorrhagic fever'
p4782
sS'PA165108389'
p4783
S'Porphyrinopathy'
p4784
sS'PA165108382'
p4785
S'Carotid artery injury NOS'
p4786
sS'PA165108383'
p4787
S'Postpartum thyroiditis'
p4788
sS'PA165108380'
p4789
S'Rift valley fever'
p4790
sS'PA165108381'
p4791
S'Erythrokeratoderma en cocardes'
p4792
sS'PA165108386'
p4793
S"Johne's disease"
p4794
sS'PA165108387'
p4795
S'Disorder of calcium metabolism NOS'
p4796
sS'PA165108384'
p4797
S'Pulmonary infundibular stenosis'
p4798
sS'PA165108385'
p4799
S'Hereditary hemolytic anemia NOS'
p4800
sS'PA165108474'
p4801
S'Fasciitis unspecified'
p4802
sS'PA165108475'
p4803
S'Feline acquired immune deficiency syndrome'
p4804
sS'PA165108476'
p4805
S'Large granular lymphocytic leukemia'
p4806
sS'PA165108477'
p4807
S'Murine typhus'
p4808
sS'PA165108470'
p4809
S'Bacterial overgrowth syndrome'
p4810
sS'PA165108471'
p4811
S'Corticotroph adenoma'
p4812
sS'PA165108472'
p4813
S'Acute necrosis of liver NOS'
p4814
sS'PA165108473'
p4815
S'Pneumoconiosis NOS'
p4816
sS'PA447228'
p4817
S'congenital long QT syndrome'
p4818
sS'PA165108478'
p4819
S'Carcinoma of endocrine pancreas'
p4820
sS'PA165108479'
p4821
S'Alopecia mucinosa'
p4822
sS'PA443930'
p4823
S'Dog Diseases'
p4824
sS'PA443931'
p4825
S'Double Outlet Right Ventricle'
p4826
sS'PA443933'
p4827
S'Down Syndrome'
p4828
sS'PA446313'
p4829
S'Lymphoma, Large-Cell, Diffuse'
p4830
sS'PA443935'
p4831
S'Drowning'
p4832
sS'PA443936'
p4833
S'Drug Hypersensitivity'
p4834
sS'PA443937'
p4835
S'Drug Toxicity'
p4836
sS'PA443939'
p4837
S'Duane Retraction Syndrome'
p4838
sS'PA443428'
p4839
S'Arteriovenous Malformations'
p4840
sS'PA443429'
p4841
S'Arteritis'
p4842
sS'PA145007197'
p4843
S'Hypotonia-Cystinuria Syndrome(HCS)'
p4844
sS'PA145007194'
p4845
S'Congenital lactase deficiency'
p4846
sS'PA166048786'
p4847
S'Cadmium Poisoning'
p4848
sS'PA166048787'
p4849
S'Mercury Poisoning, Nervous System'
p4850
sS'PA166048784'
p4851
S'Cerebral Arterial Diseases'
p4852
sS'PA166048785'
p4853
S'Herpesviridae Infections'
p4854
sS'PA166048782'
p4855
S'Meningitis, Haemophilus'
p4856
sS'PA165108267'
p4857
S'Hemosiderosis NOS'
p4858
sS'PA166048780'
p4859
S'Lice Infestations'
p4860
sS'PA166048781'
p4861
S'Meningitis, Meningococcal'
p4862
sS'PA165108266'
p4863
S"Fallot's triad"
p4864
sS'PA166048788'
p4865
S'Heavy Metal Poisoning, Nervous System'
p4866
sS'PA445368'
p4867
S'Pneumothorax'
p4868
sS'PA152530805'
p4869
S'Early Infantile Epileptic Encephalopathy With Suppression-Burst Pattern'
p4870
sS'PA165108611'
p4871
S"Fallot's trilogy"
p4872
sS'PA166048768'
p4873
S'Leg Dermatoses'
p4874
sS'PA166048769'
p4875
S'Hand Dermatoses'
p4876
sS'PA443739'
p4877
S'Clonorchiasis'
p4878
sS'PA165108278'
p4879
S'Extremely low birth weight infant'
p4880
sS'PA165108279'
p4881
S'Pharyngeal disease unspecified'
p4882
sS'PA166048760'
p4883
S'Eye Infections, Viral'
p4884
sS'PA166048761'
p4885
S'Conjunctivitis, Allergic'
p4886
sS'PA166048762'
p4887
S'Bone Marrow Diseases'
p4888
sS'PA166048763'
p4889
S'Extravasation of Diagnostic and Therapeutic Materials'
p4890
sS'PA165108272'
p4891
S'Papulosquamous dermatosis'
p4892
sS'PA165108273'
p4893
S'Delayed recovery from anaesthesia'
p4894
sS'PA165108270'
p4895
S'Bacillary angiomatosis'
p4896
sS'PA166048767'
p4897
S'Foot Dermatoses'
p4898
sS'PA443687'
p4899
S'Chagas Cardiomyopathy'
p4900
sS'PA446409'
p4901
S'Polyendocrinopathies, Autoimmune'
p4902
sS'PA446408'
p4903
S'Diabetic Ketoacidosis'
p4904
sS'PA447130'
p4905
S'Myotonic Disorders'
p4906
sS'PA447131'
p4907
S'Brachial Plexus Neuritis'
p4908
sS'PA446107'
p4909
S'Prolactinoma'
p4910
sS'PA447138'
p4911
S'Carcinoma, Pancreatic Ductal'
p4912
sS'PA443336'
p4913
S'Anaplasia'
p4914
sS'PA166119022'
p4915
S'methamphetamine dependence'
p4916
sS'PA443334'
p4917
S'Pain Insensitivity, Congenital'
p4918
sS'PA443335'
p4919
S'Anaphylaxis'
p4920
sS'PA443332'
p4921
S'Amyotrophic Lateral Sclerosis'
p4922
sS'PA443331'
p4923
S'Amyloidosis'
p4924
sS'PA445213'
p4925
S'Pancoast Syndrome'
p4926
sS'PA446102'
p4927
S'Dementia, Multi-Infarct'
p4928
sS'PA445210'
p4929
S'Pain, Postoperative'
p4930
sS'PA445217'
p4931
S'Exocrine Pancreatic Insufficiency'
p4932
sS'PA165108308'
p4933
S'Temporomandibular joint-pain-dysfunction syndrome'
p4934
sS'PA445215'
p4935
S'Pancreatic Diseases'
p4936
sS'PA446103'
p4937
S'Superinfection'
p4938
sS'PA445815'
p4939
S'Tay-Sachs Disease'
p4940
sS'PA444818'
p4941
S'Lung Neoplasms'
p4942
sS'PA165108697'
p4943
S'Complete avulsion of tooth'
p4944
sS'PA445811'
p4945
S'Takayasu Arteritis'
p4946
sS'PA445812'
p4947
S'Tangier Disease'
p4948
sS'PA446051'
p4949
S'Vomiting'
p4950
sS'PA444813'
p4951
S'Lung Abscess'
p4952
sS'PA446101'
p4953
S'Hydrops Fetalis'
p4954
sS'PA444816'
p4955
S'Lung Diseases, Obstructive'
p4956
sS'PA445818'
p4957
S'Giant Cell Arteritis'
p4958
sS'PA444814'
p4959
S'Lung Diseases'
p4960
sS'PA446144'
p4961
S'Reperfusion Injury'
p4962
sS'PA447048'
p4963
S'Myopathy, Central Core'
p4964
sS'PA446547'
p4965
S'Amyloid Neuropathies'
p4966
sS'PA446540'
p4967
S'Cytomegalovirus Retinitis'
p4968
sS'PA446541'
p4969
S'Lymphoma, Large-Cell, Anaplastic'
p4970
sS'PA447046'
p4971
S'Parasomnias'
p4972
sS'PA443759'
p4973
S'Color Vision Defects'
p4974
sS'PA152238425'
p4975
S'Multiple Pterygium Syndrome'
p4976
sS'PA443750'
p4977
S'Colitis, Ulcerative'
p4978
sS'PA443751'
p4979
S'Collagen Diseases'
p4980
sS'PA443753'
p4981
S'Coloboma'
p4982
sS'PA443754'
p4983
S'Colonic Diseases'
p4984
sS'PA443755'
p4985
S'Colonic Diseases, Functional'
p4986
sS'PA443756'
p4987
S'Colonic Neoplasms'
p4988
sS'PA443757'
p4989
S'Colonic Polyps'
p4990
sS'PA446053'
p4991
S'von Willebrand Disease'
p4992
sS'PA444966'
p4993
S'Motion Sickness'
p4994
sS'PA446895'
p4995
S'Hemostatic Disorders'
p4996
sS'PA444965'
p4997
S'Morphine Dependence'
p4998
sS'PA444962'
p4999
S'Monosomy'
p5000
sS'PA446891'
p5001
S'Anticipation, Genetic'
p5002
sS'PA446892'
p5003
S'Hyperhomocysteinemia'
p5004
sS'PA446893'
p5005
S'Gastroschisis'
p5006
sS'PA445330'
p5007
S'Pituitary Diseases'
p5008
sS'PA142189041'
p5009
S'Roberts-SC phocomelia syndrome'
p5010
sS'PA165109180'
p5011
S'Sialolithiasis NOS'
p5012
sS'PA445619'
p5013
S'Scoliosis'
p5014
sS'PA165108693'
p5015
S'Central cord syndrome'
p5016
sS'PA445850'
p5017
S'Thrombosis'
p5018
sS'PA446055'
p5019
S'Vulvar Neoplasms'
p5020
sS'PA445969'
p5021
S'Twins, Conjoined'
p5022
sS'PA445968'
p5023
S'Turner Syndrome'
p5024
sS'PA445965'
p5025
S'Tuberous Sclerosis'
p5026
sS'PA161660866'
p5027
S'Schmid Metaphyseal Chondrodysplasia'
p5028
sS'PA445960'
p5029
S'Tuberculosis, Pulmonary'
p5030
sS'PA445618'
p5031
S'Sclerosis'
p5032
sS'PA445139'
p5033
S'Odontogenic Cysts'
p5034
sS'PA445457'
p5035
S'Pterygium'
p5036
sS'PA444365'
p5037
S'Heart Arrest'
p5038
sS'PA444366'
p5039
S'Heart Block'
p5040
sS'PA444367'
p5041
S'Heart Defects, Congenital'
p5042
sS'PA444360'
p5043
S'Hearing Loss, High-Frequency'
p5044
sS'PA444361'
p5045
S'Hearing Loss, Noise-Induced'
p5046
sS'PA444362'
p5047
S'Deaf-Blind Disorders'
p5048
sS'PA444363'
p5049
S'Hearing Loss, Sensorineural'
p5050
sS'PA443512'
p5051
S'Urinary Bladder Neoplasms'
p5052
sS'PA444368'
p5053
S'Heart Diseases'
p5054
sS'PA444369'
p5055
S'Cardiomegaly'
p5056
sS'PA444727'
p5057
S'Learning Disorders'
p5058
sS'PA445514'
p5059
S'Renal Artery Obstruction'
p5060
sS'PA165108105'
p5061
S"Paget's disease NOS"
p5062
sS'PA444024'
p5063
S'Encephalomyelitis, Autoimmune, Experimental'
p5064
sS'PA444023'
p5065
S'Encephalomyelitis'
p5066
sS'PA444021'
p5067
S'Encephalocele'
p5068
sS'PA444020'
p5069
S'Encephalitis, Tick-Borne'
p5070
sS'PA165108692'
p5071
S'Myopathy secondary to deficiency of selenium and/or vitamin E'
p5072
sS'PA445564'
p5073
S'Rib Fractures'
p5074
sS'PA444826'
p5075
S'Lymphadenitis'
p5076
sS'PA165108857'
p5077
S'Macrophage activation syndrome'
p5078
sS'PA446771'
p5079
S'Sepsis'
p5080
sS'PA152238081'
p5081
S'Fuhrmann Syndrome'
p5082
sS'PA165109137'
p5083
S'Dysgammaglobulinaemia'
p5084
sS'PA165109134'
p5085
S'Thrombophlebitis NOS'
p5086
sS'PA152238082'
p5087
S'Al-Awadi/Raas-Rothschild/Schinzel Phocomelia Syndrome'
p5088
sS'PA165109132'
p5089
S'Traumatic injury of abducens nerve'
p5090
sS'PA446773'
p5091
S'Multiple Endocrine Neoplasia Type 2b'
p5092
sS'PA165109130'
p5093
S'Muscular hypertonicity'
p5094
sS'PA165109131'
p5095
S'Purulent otitis media NOS'
p5096
sS'PA446772'
p5097
S'Multiple Endocrine Neoplasia Type 2a'
p5098
sS'PA165109138'
p5099
S'Labyrinthine disorders NOS'
p5100
sS'PA165109139'
p5101
S'Persistent fetal circulation syndrome'
p5102
sS'PA444797'
p5103
S'Liver Cirrhosis'
p5104
sS'PA444793'
p5105
S'Liposarcoma'
p5106
sS'PA153626879'
p5107
S'FG Syndrome'
p5108
sS'PA447268'
p5109
S'tardive dyskinesia'
p5110
sS'PA444799'
p5111
S'Liver Cirrhosis, Biliary'
p5112
sS'PA444798'
p5113
S'Liver Cirrhosis, Alcoholic'
p5114
sS'PA444153'
p5115
S'Fatigue'
p5116
sS'PA444154'
p5117
S'Fatty Liver'
p5118
sS'PA446471'
p5119
S'Ophthalmoplegia, Chronic Progressive External'
p5120
sS'PA165108863'
p5121
S'Congenital dislocation of hip NOS'
p5122
sS'PA165108710'
p5123
S'Multiple symmetrical lipomatosis'
p5124
sS'PA165108861'
p5125
S'Gulf war syndrome'
p5126
sS'PA446141'
p5127
S'Spastic Paraplegia, Hereditary'
p5128
sS'PA446146'
p5129
S'Glomerulonephritis, Membranoproliferative'
p5130
sS'PA446147'
p5131
S'Glomerulonephritis, Membranous'
p5132
sS'PA165108717'
p5133
S'Autoimmune hemolytic anemia NOS'
p5134
sS'PA165108716'
p5135
S'Familial generalised lipodystrophy'
p5136
sS'PA165108719'
p5137
S'Pyruvate carboxylase deficiency'
p5138
sS'PA165108718'
p5139
S'Fracture, cause unspecified'
p5140
sS'PA165108869'
p5141
S'Arginase deficiency'
p5142
sS'PA165108868'
p5143
S'Hydroa vacciniforme'
p5144
sS'PA447188'
p5145
S'Genetic Diseases, Inborn'
p5146
sS'PA445172'
p5147
S'Osteitis Deformans'
p5148
sS'PA165109133'
p5149
S'Panophthalmitis'
p5150
sS'PA445174'
p5151
S'Osteoarthritis'
p5152
sS'PA444481'
p5153
S'Malignant histiocytosis NOS'
p5154
sS'PA444483'
p5155
S'HIV Seropositivity'
p5156
sS'PA444482'
p5157
S'Histoplasmosis'
p5158
sS'PA444485'
p5159
S'Hodgkin Disease'
p5160
sS'PA444487'
p5161
S'Homocystinuria'
p5162
sS'PA444486'
p5163
S'Classical Swine Fever'
p5164
sS'PA445771'
p5165
S'Sunburn'
p5166
sS'PA445772'
p5167
S'Sunstroke'
p5168
sS'PA150481190'
p5169
S'Renal carnitine transport defect'
p5170
sS'PA445775'
p5171
S'Suppuration'
p5172
sS'PA445776'
p5173
S'Supranuclear Palsy, Progressive'
p5174
sS'PA166048770'
p5175
S'Scalp Dermatoses'
p5176
sS'PA446903'
p5177
S'Protein C Deficiency'
p5178
sS'PA144997875'
p5179
S'Hereditary Hypophosphatemic Rickets with Hypercalciuria(HHRH)'
p5180
sS'PA166123466'
p5181
S'creatine kinase'
p5182
sS'PA164946504'
p5183
S'normal tension glaucoma'
p5184
sS'PA165108885'
p5185
S'Sialodocholithiasis NOS'
p5186
sS'PA447306'
p5187
S'diabetes mellitus type 2 and obesity'
p5188
sS'PA447305'
p5189
S'spondyloepimetaphyseal dysplasia'
p5190
sS'PA447304'
p5191
S'estrogen-dependent carcinogenesis'
p5192
sS'PA447300'
p5193
S'Acquired Long QT Syndrome (aLQTS)'
p5194
sS'PA165108665'
p5195
S'Liver abscess NOS'
p5196
sS'PA165108664'
p5197
S'Swayback of sheep'
p5198
sS'PA165108667'
p5199
S'Urinary fistula NOS'
p5200
sS'PA165108666'
p5201
S'Hog cholera'
p5202
sS'PA165108661'
p5203
S'Hypoalbuminaemia'
p5204
sS'PA165108660'
p5205
S'Chalazion'
p5206
sS'PA165108663'
p5207
S'Trichomonas NOS'
p5208
sS'PA165108662'
p5209
S'Hallermann-Streiff syndrome'
p5210
sS'PA165108669'
p5211
S'Malnutrition NOS'
p5212
sS'PA165108668'
p5213
S"Zenker's diverticulum"
p5214
sS'PA446095'
p5215
S'Zollinger-Ellison Syndrome'
p5216
sS'PA165108884'
p5217
S'Vitamin B deficiency NOS'
p5218
sS'PA152238068'
p5219
S'Cold-Induced Sweating Syndrome'
p5220
sS'PA444579'
p5221
S'Hypophosphatemia, Familial'
p5222
sS'PA444575'
p5223
S'Hyponatremia'
p5224
sS'PA152238062'
p5225
S'Pitt-Hopkins Syndrome'
p5226
sS'PA444577'
p5227
S'Hypopharyngeal Neoplasms'
p5228
sS'PA444576'
p5229
S'Hypoparathyroidism'
p5230
sS'PA446098'
p5231
S'Dementia, Vascular'
p5232
sS'PA444570'
p5233
S'Hypoglycemia'
p5234
sS'PA444573'
p5235
S'Hypokalemia'
p5236
sS'PA444572'
p5237
S'Hypohidrosis'
p5238
sS'PA162263526'
p5239
S'Poststroke depression'
p5240
sS'PA162263525'
p5241
S'neuropathic pain'
p5242
sS'PA444778'
p5243
S'Leydig Cell Tumor'
p5244
sS'PA445682'
p5245
S'Skin Manifestations'
p5246
sS'PA445683'
p5247
S'Skin Neoplasms'
p5248
sS'PA444773'
p5249
S'Leukopenia'
p5250
sS'PA444771'
p5251
S'Leukoencephalopathy, Progressive Multifocal'
p5252
sS'PA445688'
p5253
S'Sleep Deprivation'
p5254
sS'PA445689'
p5255
S'Sleep Disorders'
p5256
sS'PA444774'
p5257
S'Leukoplakia'
p5258
sS'PA165108449'
p5259
S'Enophthalmos NOS'
p5260
sS'PA165108448'
p5261
S'Chondromatosis'
p5262
sS'PA165108919'
p5263
S'Orchitis NOS'
p5264
sS'PA165108918'
p5265
S'Diverticulitis NOS'
p5266
sS'PA165108441'
p5267
S'Lead compound causing toxic effect NOS'
p5268
sS'PA165108912'
p5269
S'Post-term pregnancy unspecified'
p5270
sS'PA165108443'
p5271
S'Injury leg NOS'
p5272
sS'PA128407009'
p5273
S'Mycobacterium Infections'
p5274
sS'PA165108917'
p5275
S'Glomus tympanicum tumour'
p5276
sS'PA165108444'
p5277
S"Mikulicz's disease"
p5278
sS'PA165108915'
p5279
S'Mucocutaneous-lymphangitic paracoccidioidomycosis'
p5280
sS'PA165108914'
p5281
S'Postcholecystectomy syndrome'
p5282
sS'PA447230'
p5283
S'HIV'
p5284
sS'PA446320'
p5285
S'Lymphoma, T-Cell, Cutaneous'
p5286
sS'PA446321'
p5287
S'Lymphoma, T-Cell, Peripheral'
p5288
sS'PA446327'
p5289
S'Bacteremia'
p5290
sS'PA446324'
p5291
S'Sweet Syndrome'
p5292
sS'PA446325'
p5293
S'Lysosomal Storage Diseases'
p5294
sS'PA443435'
p5295
S'Arthrogryposis'
p5296
sS'PA443922'
p5297
S'Disseminated Intravascular Coagulation'
p5298
sS'PA443921'
p5299
S'Dislocations'
p5300
sS'PA443431'
p5301
S'Arthritis, Experimental'
p5302
sS'PA443926'
p5303
S'Diverticulum'
p5304
sS'PA443433'
p5305
S'Arthritis, Juvenile Rheumatoid'
p5306
sS'PA443432'
p5307
S'Arthritis, Infectious'
p5308
sS'PA444270'
p5309
S'Tourette Syndrome'
p5310
sS'PA443928'
p5311
S'Dizziness'
p5312
sS'PA445356'
p5313
S'Pneumonia, Aspiration'
p5314
sS'PA443438'
p5315
S'Articulation Disorders'
p5316
sS'PA445355'
p5317
S'Pneumonia'
p5318
sS'PA445003'
p5319
S'Mutism'
p5320
sS'PA445190'
p5321
S'Osteoporosis'
p5322
sS'PA445192'
p5323
S'Osteosclerosis'
p5324
sS'PA445194'
p5325
S'Otitis'
p5326
sS'PA445196'
p5327
S'Otitis Media'
p5328
sS'PA165108283'
p5329
S'Disappearing bone disease'
p5330
sS'PA443698'
p5331
S'Chilblains'
p5332
sS'PA165108280'
p5333
S'Afterimage'
p5334
sS'PA166048759'
p5335
S'Keratoconjunctivitis, Infectious'
p5336
sS'PA165108286'
p5337
S'Disturbance of amino acid transport or metabolism NOS'
p5338
sS'PA165108285'
p5339
S'Normal pressure hydrocephalus'
p5340
sS'PA165108284'
p5341
S'Psychogenic syndromes NOS'
p5342
sS'PA166048755'
p5343
S'Babesiosis'
p5344
sS'PA443690'
p5345
S'Charcot-Marie-Tooth Disease'
p5346
sS'PA165108289'
p5347
S'Adenolymphoma'
p5348
sS'PA166048756'
p5349
S'Child Development Disorders, Pervasive'
p5350
sS'PA443695'
p5351
S'Cheyne-Stokes Respiration'
p5352
sS'PA443694'
p5353
S'Chest Pain'
p5354
sS'PA443697'
p5355
S'Chickenpox'
p5356
sS'PA166048752'
p5357
S'Pregnancy, Abdominal'
p5358
sS'PA443329'
p5359
S'Amniotic Band Syndrome'
p5360
sS'PA443328'
p5361
S'Amnesia, Retrograde'
p5362
sS'PA447122'
p5363
S'Myasthenia Gravis, Neonatal'
p5364
sS'PA446438'
p5365
S'Kidney Failure'
p5366
sS'PA446439'
p5367
S'Prion Diseases'
p5368
sS'PA446436'
p5369
S'Liver Failure'
p5370
sS'PA443320'
p5371
S'Amblyopia'
p5372
sS'PA443323'
p5373
S'Amelogenesis Imperfecta'
p5374
sS'PA446435'
p5375
S'Porphyria, Erythropoietic'
p5376
sS'PA446432'
p5377
S'beta-Thalassemia'
p5378
sS'PA443324'
p5379
S'Amenorrhea'
p5380
sS'PA443327'
p5381
S'Amnesia'
p5382
sS'PA446431'
p5383
S'alpha-Thalassemia'
p5384
sS'PA445229'
p5385
S'Paraganglioma'
p5386
sS'PA445224'
p5387
S'Papilledema'
p5388
sS'PA445225'
p5389
S'Papilloma'
p5390
sS'PA445220'
p5391
S'Pancreatitis'
p5392
sS'PA445221'
p5393
S'Pancytopenia'
p5394
sS'PA444805'
p5395
S'Liver Neoplasms, Experimental'
p5396
sS'PA444804'
p5397
S'Liver Neoplasms'
p5398
sS'PA444807'
p5399
S'Long QT Syndrome'
p5400
sS'PA444801'
p5401
S'Liver Diseases'
p5402
sS'PA444802'
p5403
S'Liver Diseases, Alcoholic'
p5404
sS'PA446558'
p5405
S'Tuberculosis, Multidrug-Resistant'
p5406
sS'PA444431'
p5407
S'Hemothorax'
p5408
sS'PA446551'
p5409
S'Canavan Disease'
p5410
sS'PA446552'
p5411
S'Machado-Joseph Disease'
p5412
sS'PA446555'
p5413
S'Exfoliation Syndrome'
p5414
sS'PA444432'
p5415
S'Hepatic Encephalopathy'
p5416
sS'PA444433'
p5417
S'Budd-Chiari Syndrome'
p5418
sS'PA445691'
p5419
S'Smallpox'
p5420
sS'PA447053'
p5421
S'Brain Infarction'
p5422
sS'PA447052'
p5423
S'Focal Nodular Hyperplasia'
p5424
sS'PA447051'
p5425
S'Brachial Plexus Neuropathies'
p5426
sS'PA447050'
p5427
S'Hypokalemic Periodic Paralysis'
p5428
sS'PA447057'
p5429
S'Multiple Sclerosis, Chronic Progressive'
p5430
sS'PA447055'
p5431
S'Lymphoma, Mantle-Cell'
p5432
sS'PA447054'
p5433
S'Stroke'
p5434
sS'PA443749'
p5435
S'Colitis'
p5436
sS'PA443748'
p5437
S'Colic'
p5438
sS'PA444436'
p5439
S'Hepatitis A'
p5440
sS'PA443742'
p5441
S'Cluster Headache'
p5442
sS'PA443741'
p5443
S'Clubfoot'
p5444
sS'PA165108583'
p5445
S'Seasonal affective disorder'
p5446
sS'PA443746'
p5447
S'Cockayne Syndrome'
p5448
sS'PA445722'
p5449
S'Splenomegaly'
p5450
sS'PA444953'
p5451
S'Mitral Valve Insufficiency'
p5452
sS'PA444972'
p5453
S'Mouth Neoplasms'
p5454
sS'PA444975'
p5455
S'Moyamoya Disease'
p5456
sS'PA444974'
p5457
S'Movement Disorders'
p5458
sS'PA444977'
p5459
S'Mucocutaneous Lymph Node Syndrome'
p5460
sS'PA444979'
p5461
S'Mucopolysaccharidoses'
p5462
sS'PA444978'
p5463
S'Mucolipidoses'
p5464
sS'PA446883'
p5465
S'Epstein-Barr Virus Infections'
p5466
sS'PA446882'
p5467
S'Genetic Predisposition to Disease'
p5468
sS'PA446880'
p5469
S'Activated Protein C Resistance'
p5470
sS'PA166048824'
p5471
S'Sleep Paralysis'
p5472
sS'PA444954'
p5473
S'Mitral Valve Prolapse'
p5474
sS'PA445990'
p5475
S'Urinary Incontinence'
p5476
sS'PA445991'
p5477
S'Urinary Incontinence, Stress'
p5478
sS'PA445992'
p5479
S'Urinary Tract Infections'
p5480
sS'PA445994'
p5481
S'Urogenital Abnormalities'
p5482
sS'PA445995'
p5483
S'Urogenital Neoplasms'
p5484
sS'PA445996'
p5485
S'Male Urogenital Diseases'
p5486
sS'PA445997'
p5487
S'Urologic Diseases'
p5488
sS'PA445998'
p5489
S'Urologic Neoplasms'
p5490
sS'PA445999'
p5491
S'Urticaria'
p5492
sS'PA444377'
p5493
S'Heart Septal Defects, Atrial'
p5494
sS'PA444372'
p5495
S'Heart Murmurs'
p5496
sS'PA444370'
p5497
S'Heart Failure'
p5498
sS'PA444379'
p5499
S'Heart Valve Diseases'
p5500
sS'PA444378'
p5501
S'Heart Septal Defects, Ventricular'
p5502
sS'PA142297362'
p5503
S'Costello Syndrome'
p5504
sS'PA446155'
p5505
S'Precursor Cell Lymphoblastic Leukemia-Lymphoma'
p5506
sS'PA162168973'
p5507
S'transient neonatal diabetes'
p5508
sS'PA165108871'
p5509
S'Sulfhemoglobinemia'
p5510
sS'PA165110543'
p5511
S'Balint syndrome'
p5512
sS'PA165108704'
p5513
S'Rat-bite fever NOS'
p5514
sS'PA444013'
p5515
S'Empyema, Tuberculous'
p5516
sS'PA444010'
p5517
S'Emphysema'
p5518
sS'PA446156'
p5519
S'Leukemia, B-Cell'
p5520
sS'PA444017'
p5521
S'Encephalitis, Japanese'
p5522
sS'PA444014'
p5523
S'Encephalitis'
p5524
sS'PA165108874'
p5525
S'Ophthalmic herpes simplex NOS'
p5526
sS'PA165108875'
p5527
S'Hypohidrotic X-linked ectodermal dysplasia'
p5528
sS'PA165108152'
p5529
S'Lassa fever'
p5530
sS'PA445515'
p5531
S'Renal Osteodystrophy'
p5532
sS'PA445510'
p5533
S'Refractive Errors'
p5534
sS'PA446153'
p5535
S'Leprosy, Tuberculoid'
p5536
sS'PA445512'
p5537
S'Arthritis, Reactive'
p5538
sS'PA445273'
p5539
S'Pemphigus'
p5540
sS'PA446152'
p5541
S'Leprosy, Lepromatous'
p5542
sS'PA447129'
p5543
S'Muscular Disorders, Atrophic'
p5544
sS'PA153626883'
p5545
S'X-linked mental retardation with marfanoid habitus syndrome'
p5546
sS'PA443371'
p5547
S'Angioedema'
p5548
sS'PA445202'
p5549
S'Ovarian Cysts'
p5550
sS'PA166123787'
p5551
S'serum anticholinergic activity'
p5552
sS'PA445428'
p5553
S'Protein Deficiency'
p5554
sS'PA444167'
p5555
S'Fetal Alcohol Syndrome'
p5556
sS'PA444163'
p5557
S'Femoral Fractures'
p5558
sS'PA445420'
p5559
S'Progeria'
p5560
sS'PA445421'
p5561
S'Prognathism'
p5562
sS'PA445422'
p5563
S'Prolapse'
p5564
sS'PA446440'
p5565
S'IgA Deficiency'
p5566
sS'PA445424'
p5567
S'Prostatic Hyperplasia'
p5568
sS'PA445425'
p5569
S'Prostatic Neoplasms'
p5570
sS'PA444169'
p5571
S'Fetal Death'
p5572
sS'PA446366'
p5573
S"Still's Disease, Adult-Onset"
p5574
sS'PA165108947'
p5575
S'Tuberculous pleurisy NOS'
p5576
sS'PA445608'
p5577
S'Schistosomiasis'
p5578
sS'PA165108706'
p5579
S'Embryonic fimbrial cyst'
p5580
sS'PA165108707'
p5581
S'Spina bifida occulta'
p5582
sS'PA446157'
p5583
S'Leukemia, B-Cell, Acute'
p5584
sS'PA165108705'
p5585
S'Fracture of skull NOS'
p5586
sS'PA165108702'
p5587
S'Inclusion body myositis'
p5588
sS'PA165108703'
p5589
S'Bladder outlet obstruction'
p5590
sS'PA165108876'
p5591
S'Haemophagocytic lymphohistiocytosis'
p5592
sS'PA165108701'
p5593
S'Hypocapnia'
p5594
sS'PA165108878'
p5595
S'Schistosoma japonicum infection'
p5596
sS'PA165108879'
p5597
S'Bannwarth syndrome'
p5598
sS'PA165108708'
p5599
S'Somatotroph adenoma'
p5600
sS'PA165108709'
p5601
S'Arthropod-borne viral disease NOS'
p5602
sS'PA165109099'
p5603
S'Keratoconus NOS'
p5604
sS'PA165109098'
p5605
S'Digestive system anomalies NOS'
p5606
sS'PA165109159'
p5607
S'Unspecified keratoconjunctivitis'
p5608
sS'PA165109091'
p5609
S'Sweat gland disorder NOS'
p5610
sS'PA165109090'
p5611
S'Congenital cyst of oesophagus'
p5612
sS'PA165109093'
p5613
S'Dim vision'
p5614
sS'PA165109092'
p5615
S'Bovine ephemeral fever'
p5616
sS'PA165109095'
p5617
S'Histiocytic sarcoma'
p5618
sS'PA165109094'
p5619
S'Feline panleucopenia'
p5620
sS'PA165109097'
p5621
S'Balkan nephropathy'
p5622
sS'PA165109096'
p5623
S'Postconcussion syndrome'
p5624
sS'PA445769'
p5625
S'Sudden Infant Death'
p5626
sS'PA445768'
p5627
S'Substance Withdrawal Syndrome'
p5628
sS'PA445168'
p5629
S'Oropharyngeal Neoplasms'
p5630
sS'PA445846'
p5631
S'Thrombocytopenia'
p5632
sS'PA445252'
p5633
S'Paresis'
p5634
sS'PA165108678'
p5635
S'Generalized glycogenosis'
p5636
sS'PA165108679'
p5637
S'Unspecified femoral hernia NOS'
p5638
sS'PA165108672'
p5639
S'Trematode infection NOS'
p5640
sS'PA165108673'
p5641
S'Radial styloid tenosynovitis'
p5642
sS'PA165108670'
p5643
S'Deficiency of tryptophan 2,3-dioxygenase'
p5644
sS'PA165108671'
p5645
S'Mixed gonadal dysgenesis'
p5646
sS'PA165108676'
p5647
S'Lymphocytic-plasmacytic colitis'
p5648
sS'PA165108677'
p5649
S'Incomplete spontaneous abortion NOS'
p5650
sS'PA165108674'
p5651
S'Placental abruption NOS'
p5652
sS'PA165108675'
p5653
S'Jaw fracture NOS'
p5654
sS'PA443788'
p5655
S'Seizures, Febrile'
p5656
sS'PA445847'
p5657
S'Thrombocytosis'
p5658
sS'PA444580'
p5659
S'Hypopituitarism'
p5660
sS'PA444581'
p5661
S'Hypoproteinemia'
p5662
sS'PA444582'
p5663
S'Hypoprothrombinemias'
p5664
sS'PA444583'
p5665
S'Hypospadias'
p5666
sS'PA444584'
p5667
S'Hypotension'
p5668
sS'PA444585'
p5669
S'Hypotension, Orthostatic'
p5670
sS'PA446081'
p5671
S'Wounds, Nonpenetrating'
p5672
sS'PA444587'
p5673
S'Hypothalamic Neoplasms'
p5674
sS'PA444588'
p5675
S'Hypothermia'
p5676
sS'PA444589'
p5677
S'Hypothyroidism'
p5678
sS'PA446089'
p5679
S'Xerostomia'
p5680
sS'PA162263534'
p5681
S'Ototoxicity'
p5682
sS'PA445693'
p5683
S'Sneezing'
p5684
sS'PA444748'
p5685
S'Lesch-Nyhan Syndrome'
p5686
sS'PA444749'
p5687
S'Histiocytosis, Langerhans-Cell'
p5688
sS'PA444747'
p5689
S'Leriche Syndrome'
p5690
sS'PA444745'
p5691
S'Leprosy'
p5692
sS'PA444742'
p5693
S'Lens Diseases'
p5694
sS'PA444740'
p5695
S'Leishmaniasis, Mucocutaneous'
p5696
sS'PA444741'
p5697
S'Leishmaniasis, Visceral'
p5698
sS'PA165108908'
p5699
S'Allergy to peanuts'
p5700
sS'PA165108909'
p5701
S'Torsion of testis NOS'
p5702
sS'PA165108458'
p5703
S'Cyst - pilonidal'
p5704
sS'PA165108459'
p5705
S'Benign mucous membrane pemphigoid NOS'
p5706
sS'PA165108900'
p5707
S'Alcoholic psychosis NOS'
p5708
sS'PA165108901'
p5709
S'Striatonigral degeneration'
p5710
sS'PA165108902'
p5711
S'Lentigo maligna melanoma'
p5712
sS'PA165108903'
p5713
S'Multiple lentigines syndrome'
p5714
sS'PA165108452'
p5715
S'Acute cholecystitis unspecified'
p5716
sS'PA165108453'
p5717
S'Juvenile osteochondritis of hip AND/OR pelvis'
p5718
sS'PA165108906'
p5719
S'Histiocytic necrotizing lymphadenitis'
p5720
sS'PA165108451'
p5721
S'Necrotizing sialometaplasia'
p5722
sS'PA447207'
p5723
S'Depressive Disorder'
p5724
sS'PA446338'
p5725
S'Neurofibromatosis 2'
p5726
sS'PA447200'
p5727
S'Borderline Personality Disorder'
p5728
sS'PA447201'
p5729
S'Bulimia'
p5730
sS'PA446335'
p5731
S'Corneal Neovascularization'
p5732
sS'PA446336'
p5733
S'Severe Combined Immunodeficiency'
p5734
sS'PA447208'
p5735
S'Mental Disorders'
p5736
sS'PA447209'
p5737
S'Mood Disorders'
p5738
sS'PA443915'
p5739
S'Diplopia'
p5740
sS'PA443913'
p5741
S'Diphtheria'
p5742
sS'PA443911'
p5743
S'Dilatation, Pathologic'
p5744
sS'PA445344'
p5745
S'Pleural Effusion'
p5746
sS'PA445346'
p5747
S'Pleurisy'
p5748
sS'PA445341'
p5749
S'Platelet Storage Pool Deficiency'
p5750
sS'PA445340'
p5751
S'Plasmacytoma'
p5752
sS'PA445343'
p5753
S'Pleural Diseases'
p5754
sS'PA443919'
p5755
S'Disease Susceptibility'
p5756
sS'PA445189'
p5757
S'Osteopoikilosis'
p5758
sS'PA445188'
p5759
S'Osteopetrosis'
p5760
sS'PA445183'
p5761
S'Osteoma'
p5762
sS'PA445180'
p5763
S'Osteogenesis Imperfecta'
p5764
sS'PA445187'
p5765
S'Osteonecrosis'
p5766
sS'PA445185'
p5767
S'Osteomalacia'
p5768
sS'PA166048742'
p5769
S'Myxedema'
p5770
sS'PA165108291'
p5771
S'Suntan'
p5772
sS'PA166048740'
p5773
S'Helicobacter Infections'
p5774
sS'PA166048741'
p5775
S'Adrenal Insufficiency'
p5776
sS'PA166048746'
p5777
S'Infant'
p5778
sS'PA165108295'
p5779
S'Stokes-Adams attack'
p5780
sS'PA166048744'
p5781
S'Female Urogenital Diseases and Pregnancy Complications'
p5782
sS'PA166048745'
p5783
S'Child'
p5784
sS'PA445734'
p5785
S'Starvation'
p5786
sS'PA165108299'
p5787
S'Unspecified optic neuritis'
p5788
sS'PA447110'
p5789
S'Korsakoff Syndrome'
p5790
sS'PA166048749'
p5791
S'Pregnancy Third Trimester'
p5792
sS'PA446421'
p5793
S'Meningitis, Bacterial'
p5794
sS'PA443358'
p5795
S'Aneuploidy'
p5796
sS'PA443359'
p5797
S'Aneurysm'
p5798
sS'PA443354'
p5799
S'Anemia, Refractory, with Excess of Blasts'
p5800
sS'PA443355'
p5801
S'Anemia, Sickle Cell'
p5802
sS'PA443356'
p5803
S'Anemia, Sideroblastic'
p5804
sS'PA443357'
p5805
S'Anencephaly'
p5806
sS'PA443352'
p5807
S'Anemia, Pernicious'
p5808
sS'PA443353'
p5809
S'Anemia, Refractory'
p5810
sS'PA445230'
p5811
S'Paraganglioma, Extra-Adrenal'
p5812
sS'PA443598'
p5813
S'Candidiasis, Chronic Mucocutaneous'
p5814
sS'PA443599'
p5815
S'Candidiasis, Cutaneous'
p5816
sS'PA445235'
p5817
S'Paralyses, Familial Periodic'
p5818
sS'PA445234'
p5819
S'Bulbar Palsy, Progressive'
p5820
sS'PA445735'
p5821
S'Status Asthmaticus'
p5822
sS'PA443597'
p5823
S'Candidiasis'
p5824
sS'PA443594'
p5825
S'Calculi'
p5826
sS'PA165108948'
p5827
S'Parametritis unspecified'
p5828
sS'PA162364308'
p5829
S'Spondylothoracic Dysostosis'
p5830
sS'PA446529'
p5831
S'Hypereosinophilic Syndrome'
p5832
sS'PA446444'
p5833
S'Low Back Pain'
p5834
sS'PA446525'
p5835
S'WAGR Syndrome'
p5836
sS'PA446526'
p5837
S'Hypophosphatemia'
p5838
sS'PA446522'
p5839
S'Neuroectodermal Tumors'
p5840
sS'PA153627690'
p5841
S'Muscle Glycogen Storage Disease 0'
p5842
sS'PA446509'
p5843
S'Aortic Aneurysm, Abdominal'
p5844
sS'PA447066'
p5845
S'Spinocerebellar Ataxias'
p5846
sS'PA447067'
p5847
S'Amaurosis Fugax'
p5848
sS'PA447062'
p5849
S'Parkinsonian Disorders'
p5850
sS'PA447060'
p5851
S'Myasthenia Gravis, Autoimmune, Experimental'
p5852
sS'PA447061'
p5853
S'Nervous System Autoimmune Disease, Experimental'
p5854
sS'PA153627457'
p5855
S'Bohring-Opitz Syndrome'
p5856
sS'PA153627456'
p5857
S'Opitz Trigonocephaly'
p5858
sS'PA153627455'
p5859
S'Odonto-onycho-dermal Dysplasia'
p5860
sS'PA165108178'
p5861
S'Stroke NOS'
p5862
sS'PA152210107'
p5863
S'Pituitary adenoma'
p5864
sS'PA443770'
p5865
S'Condylomata Acuminata'
p5866
sS'PA443771'
p5867
S'Confusion'
p5868
sS'PA166114942'
p5869
S'familial hypercholesterolemia'
p5870
sS'PA165108328'
p5871
S'Posterior uveitis NOS'
p5872
sS'PA447169'
p5873
S'Amyloidosis, Familial'
p5874
sS'PA444904'
p5875
S'Melanoma, Experimental'
p5876
sS'PA444905'
p5877
S'Melanosis'
p5878
sS'PA444906'
p5879
S'Melena'
p5880
sS'PA165108244'
p5881
S'Unspecified peptic ulcer with perforation'
p5882
sS'PA444902'
p5883
S'Meigs Syndrome'
p5884
sS'PA444903'
p5885
S'Melanoma'
p5886
sS'PA165108243'
p5887
S'X-linked severe combined immunodeficiency'
p5888
sS'PA165108519'
p5889
S'Optic neuritis NOS'
p5890
sS'PA444909'
p5891
S'Melorheostosis'
p5892
sS'PA165108242'
p5893
S'Infective diarrhoea'
p5894
sS'PA446630'
p5895
S'Adenoma, Oxyphilic'
p5896
sS'PA165108773'
p5897
S'Midborderline leprosy'
p5898
sS'PA446637'
p5899
S'Adenomatous Polyps'
p5900
sS'PA447163'
p5901
S'Spondylarthropathies'
p5902
sS'PA447162'
p5903
S'Spondylarthritis'
p5904
sS'PA445982'
p5905
S'Ureterocele'
p5906
sS'PA445981'
p5907
S'Ureteral Obstruction'
p5908
sS'PA165108417'
p5909
S'Leg ulcer NOS'
p5910
sS'PA446126'
p5911
S'Tumor Lysis Syndrome'
p5912
sS'PA165108324'
p5913
S'Robin sequence'
p5914
sS'PA445988'
p5915
S'Urinary Calculi'
p5916
sS'PA152241265'
p5917
S'Opitz-Kaveggia Syndrome'
p5918
sS'PA447009'
p5919
S'Tolosa-Hunt Syndrome'
p5920
sS'PA166123311'
p5921
S'catecholaminergic polymorphic ventricular tachycardia'
p5922
sS'PA166123310'
p5923
S'loeys-dietz syndrome'
p5924
sS'PA447165'
p5925
S'Septo-Optic Dysplasia'
p5926
sS'PA444342'
p5927
S'Hamartoma Syndrome, Multiple'
p5928
sS'PA444343'
p5929
S'Hand Deformities'
p5930
sS'PA444340'
p5931
S'Hallux Valgus'
p5932
sS'PA444341'
p5933
S'Hamartoma'
p5934
sS'PA446985'
p5935
S'Alcohol Withdrawal Seizures'
p5936
sS'PA446982'
p5937
S'MPTP Poisoning'
p5938
sS'PA446988'
p5939
S'Guillain-Barre Syndrome'
p5940
sS'PA150527845'
p5941
S'Persistent Hyperinsulinemia Hypoglycemia of Infancy'
p5942
sS'PA446087'
p5943
S'Xeroderma Pigmentosum'
p5944
sS'PA446086'
p5945
S'Xanthomatosis'
p5946
sS'PA447021'
p5947
S'Osteoarthritis, Knee'
p5948
sS'PA446085'
p5949
S'Xanthogranuloma, Juvenile'
p5950
sS'PA444005'
p5951
S'Embolism'
p5952
sS'PA444006'
p5953
S'Embolism, Air'
p5954
sS'PA444003'
p5955
S'Ellis-Van Creveld Syndrome'
p5956
sS'PA444002'
p5957
S'Elliptocytosis, Hereditary'
p5958
sS'PA446083'
p5959
S'Wounds, Stab'
p5960
sS'PA444009'
p5961
S'Emergencies'
p5962
sS'PA445848'
p5963
S'Thromboembolism'
p5964
sS'PA445506'
p5965
S'Recurrence'
p5966
sS'PA445504'
p5967
S'Rectal Prolapse'
p5968
sS'PA445503'
p5969
S'Rectal Neoplasms'
p5970
sS'PA445500'
p5971
S'Hyperacusis'
p5972
sS'PA446080'
p5973
S'Wounds, Gunshot'
p5974
sS'PA445509'
p5975
S'Reflex, Abnormal'
p5976
sS'PA446858'
p5977
S'Neurodegenerative Diseases'
p5978
sS'PA446859'
p5979
S'Loss of Heterozygosity'
p5980
sS'PA166048773'
p5981
S'Serratia Infections'
p5982
sS'PA445986'
p5983
S'Urethral Stricture'
p5984
sS'PA446850'
p5985
S'Blindness, Cortical'
p5986
sS'PA446851'
p5987
S'Multiple System Atrophy'
p5988
sS'PA446852'
p5989
S'Hot Flashes'
p5990
sS'PA446854'
p5991
S'Intracranial Hypertension'
p5992
sS'PA446855'
p5993
S'Aging, Premature'
p5994
sS'PA446856'
p5995
S'Pseudophakia'
p5996
sS'PA446857'
p5997
S'Dengue Hemorrhagic Fever'
p5998
sS'PA165108700'
p5999
S'Porphyria NOS'
p6000
sS'PA444178'
p6001
S'Fever'
p6002
sS'PA444171'
p6003
S'Fetal Distress'
p6004
sS'PA444170'
p6005
S'Fetal Diseases'
p6006
sS'PA444172'
p6007
S'Fetal Growth Retardation'
p6008
sS'PA445697'
p6009
S'Somnambulism'
p6010
sS'PA445431'
p6011
S'Proteinuria'
p6012
sS'PA445430'
p6013
S'Protein-Losing Enteropathies'
p6014
sS'PA445437'
p6015
S'Pruritus'
p6016
sS'PA445436'
p6017
S'Prurigo'
p6018
sS'PA166048771'
p6019
S'Pregnancy First Trimester'
p6020
sS'PA444922'
p6021
S'Meningocele'
p6022
sS'PA165108845'
p6023
S'Skull fracture NOS'
p6024
sS'PA165108844'
p6025
S'Giant urticaria'
p6026
sS'PA165108847'
p6027
S'Expulsion intrauterine contraceptive device'
p6028
sS'PA165108846'
p6029
S'Situs inversus with levocardia'
p6030
sS'PA165108841'
p6031
S'Obturator hernia NOS'
p6032
sS'PA165108840'
p6033
S'Ingrowing nail NOS'
p6034
sS'PA165108843'
p6035
S'Impulse control disorder, unspecified'
p6036
sS'PA165108842'
p6037
S'Unspecified obturator hernia'
p6038
sS'PA162263533'
p6039
S'nephrotoxicity'
p6040
sS'PA165108849'
p6041
S'Dysplasia of cervix NOS'
p6042
sS'PA165108848'
p6043
S'Generalised lentiginosis'
p6044
sS'PA165108447'
p6045
S'Unspecified Boutonneuse fever'
p6046
sS'PA165109088'
p6047
S'Vein of Galen malformation'
p6048
sS'PA165109089'
p6049
S'Phantom limb syndrome'
p6050
sS'PA165109086'
p6051
S'Escherichia coli meningitis'
p6052
sS'PA165109087'
p6053
S'Abdominal fibromatosis'
p6054
sS'PA165109084'
p6055
S'Fructose-biphosphatase deficiency'
p6056
sS'PA165109085'
p6057
S'Niemann-Pick disease, type B'
p6058
sS'PA165109082'
p6059
S'Superior mesenteric artery syndrome'
p6060
sS'PA165109083'
p6061
S'Alveolitis of jaw NOS'
p6062
sS'PA165109080'
p6063
S'Foetal haemorrhage into co-twin'
p6064
sS'PA165109081'
p6065
S'Post-traumatic coma'
p6066
sS'PA165108560'
p6067
S'Pityriasis NOS'
p6068
sS'PA444841'
p6069
S'Lymphoma, Follicular'
p6070
sS'PA445752'
p6071
S'Stress'
p6072
sS'PA445750'
p6073
S'Strabismus'
p6074
sS'PA445751'
p6075
S'Streptococcal Infections'
p6076
sS'PA445672'
p6077
S'Sinusitis'
p6078
sS'PA445579'
p6079
S'Rubella'
p6080
sS'PA445758'
p6081
S'Subacute Sclerosing Panencephalitis'
p6082
sS'PA445759'
p6083
S'Subarachnoid Hemorrhage'
p6084
sS'PA445699'
p6085
S'Spasm'
p6086
sS'PA165108561'
p6087
S'Stroke and cerebrovascular accident unspecified'
p6088
sS'PA447325'
p6089
S'Coronary Restenosis'
p6090
sS'PA447321'
p6091
S'Depressive Disorder, Major'
p6092
sS'PA165108609'
p6093
S'Rosacea NOS'
p6094
sS'PA165108608'
p6095
S'Retrobulbar haemorrhage'
p6096
sS'PA165108607'
p6097
S'Costochondritis NOS'
p6098
sS'PA165108606'
p6099
S'Preterm rupture of membranes'
p6100
sS'PA165108605'
p6101
S'Sick building syndrome'
p6102
sS'PA165108604'
p6103
S'Lacrimal system disorder NOS'
p6104
sS'PA165108603'
p6105
S"Farmers' lung"
p6106
sS'PA165108602'
p6107
S"Felty's syndrome"
p6108
sS'PA165108601'
p6109
S'Tick paralysis'
p6110
sS'PA165108600'
p6111
S'Rinderpest'
p6112
sS'PA166124406'
p6113
S'platelet reactivity'
p6114
sS'PA444593'
p6115
S'Ichthyosis'
p6116
sS'PA444591'
p6117
S'Hypoventilation'
p6118
sS'PA444590'
p6119
S'Hypotrichosis'
p6120
sS'PA444597'
p6121
S'Illusions'
p6122
sS'PA444596'
p6123
S'Ileitis'
p6124
sS'PA444594'
p6125
S'Ileal Diseases'
p6126
sS'PA152238047'
p6127
S'Juvenile Polyposis of Infancy'
p6128
sS'PA444751'
p6129
S'Leukemia L1210'
p6130
sS'PA444750'
p6131
S'Leukemia'
p6132
sS'PA444755'
p6133
S'Leukemia, Hairy Cell'
p6134
sS'PA444754'
p6135
S'Leukemia, Experimental'
p6136
sS'PA444757'
p6137
S'Leukemia, Mast-Cell'
p6138
sS'PA444756'
p6139
S'Leukemia, Lymphoid'
p6140
sS'PA444759'
p6141
S'Leukemia, Monocytic, Acute'
p6142
sS'PA444758'
p6143
S'Leukemia, Megakaryoblastic, Acute'
p6144
sS'PA165108567'
p6145
S'Premature rupture of membranes unspecified'
p6146
sS'PA165108454'
p6147
S'Progressive pneumonia of sheep'
p6148
sS'PA447218'
p6149
S'Sexual Dysfunctions, Psychological'
p6150
sS'PA165108455'
p6151
S'Renal diabetes'
p6152
sS'PA165108939'
p6153
S'Simian acquired immune deficiency syndrome'
p6154
sS'PA165108938'
p6155
S'Respiratory distress syndrome in the newborn'
p6156
sS'PA165108935'
p6157
S'Constrictive pericarditis NOS'
p6158
sS'PA165108934'
p6159
S'Angiolipoma'
p6160
sS'PA165108937'
p6161
S'Invasive hydatidiform mole'
p6162
sS'PA165108936'
p6163
S"Infantile Refsum's disease"
p6164
sS'PA165108931'
p6165
S'Aphasia-angular gyrus syndrome'
p6166
sS'PA447214'
p6167
S'Phobic Disorders'
p6168
sS'PA165108933'
p6169
S'Vogt-Koyanagi-Harada disease'
p6170
sS'PA165108905'
p6171
S'Lipidoses NOS'
p6172
sS'PA165108113'
p6173
S'Juvenile myopathy, encephalopathy, lactic acidosis AND stroke'
p6174
sS'PA165108112'
p6175
S'Calciphylaxis'
p6176
sS'PA165108111'
p6177
S'Incontinentia pigmenti syndrome'
p6178
sS'PA165108110'
p6179
S'Dyslipidaemia'
p6180
sS'PA165108117'
p6181
S'Sinoatrial block'
p6182
sS'PA165108116'
p6183
S'Deficiency of alkaline phosphatase'
p6184
sS'PA165108115'
p6185
S'Congenital mesenteric cyst'
p6186
sS'PA165108114'
p6187
S'Salmonella gastroenteritis'
p6188
sS'PA165108119'
p6189
S'Platybasia'
p6190
sS'PA165108118'
p6191
S'Ruptured spleen NOS'
p6192
sS'PA443907'
p6193
S'DiGeorge Syndrome'
p6194
sS'PA162372751'
p6195
S'Hypothalamic Hamartomas'
p6196
sS'PA166048751'
p6197
S'Lactation'
p6198
sS'PA446182'
p6199
S'Leukemia, Myelomonocytic, Chronic'
p6200
sS'PA446183'
p6201
S'Leukemia, Myelomonocytic, Acute'
p6202
sS'PA446180'
p6203
S'Leukemia, Promyelocytic, Acute'
p6204
sS'PA134850558'
p6205
S'Macular Degeneration'
p6206
sS'PA166123206'
p6207
S'tolerance'
p6208
sS'PA165108514'
p6209
S'Trypanosomiasis NOS'
p6210
sS'PA152530787'
p6211
S'Diabetes, Permanent Neonatal (PNDM)'
p6212
sS'PA165108599'
p6213
S'Fistulous opening in vagina'
p6214
sS'PA165108598'
p6215
S'Corneal edema NOS'
p6216
sS'PA165108597'
p6217
S'Basal ganglia hemorrhage'
p6218
sS'PA165108596'
p6219
S'Beta-D-mannosidosis'
p6220
sS'PA165108595'
p6221
S'Disorder of lactation NOS'
p6222
sS'PA165108594'
p6223
S'Hydrocele NOS'
p6224
sS'PA165108593'
p6225
S'Thrombosis of lateral venous sinus'
p6226
sS'PA165108592'
p6227
S'Meningitis - viral NOS'
p6228
sS'PA165108591'
p6229
S'Posterior cyclitis'
p6230
sS'PA165108590'
p6231
S'Cervical incompetence NOS'
p6232
sS'PA165108510'
p6233
S'Inebriety NOS'
p6234
sS'PA166048737'
p6235
S'Neoplasms, Hormone-Dependent'
p6236
sS'PA166048736'
p6237
S'Chlamydia Infections'
p6238
sS'PA166048735'
p6239
S'Campylobacter Infections'
p6240
sS'PA166048734'
p6241
S'Chancroid'
p6242
sS'PA166048733'
p6243
S'Eye Infections, Bacterial'
p6244
sS'PA166048732'
p6245
S'Enterobacteriaceae Infections'
p6246
sS'PA166048731'
p6247
S'Pseudomonas Infections'
p6248
sS'PA166048730'
p6249
S'Haemophilus Infections'
p6250
sS'PA166048739'
p6251
S'Lung Diseases, Fungal'
p6252
sS'PA166048738'
p6253
S'AIDS-Related Opportunistic Infections'
p6254
sS'PA446450'
p6255
S'Tachycardia, Ventricular'
p6256
sS'PA443349'
p6257
S'Anemia, Megaloblastic'
p6258
sS'PA443343'
p6259
S'Anemia, Hemolytic'
p6260
sS'PA446459'
p6261
S'Myocardial Ischemia'
p6262
sS'PA443341'
p6263
S'Anemia, Aplastic'
p6264
sS'PA443340'
p6265
S'Anemia'
p6266
sS'PA445246'
p6267
S'Parasitic Diseases'
p6268
sS'PA443589'
p6269
S'Cadaver'
p6270
sS'PA443588'
p6271
S'Cachexia'
p6272
sS'PA445243'
p6273
S'Paraplegia'
p6274
sS'PA443797'
p6275
S'Coronary Disease'
p6276
sS'PA165108518'
p6277
S'Interdigital necrobacillosis'
p6278
sS'PA443580'
p6279
S'Burkitt Lymphoma'
p6280
sS'PA165108627'
p6281
S'Urethritis unspecified'
p6282
sS'PA443582'
p6283
S'Burns'
p6284
sS'PA446236'
p6285
S'Substance Abuse, Intravenous'
p6286
sS'PA143488504'
p6287
S'Vascular Resistance'
p6288
sS'PA145007163'
p6289
S'SRS-A'
p6290
sS'PA446537'
p6291
S'Retropharyngeal Abscess'
p6292
sS'PA446535'
p6293
S'Pelvic Pain'
p6294
sS'PA446534'
p6295
S'Myopathies, Nemaline'
p6296
sS'PA446532'
p6297
S'Polydactyly'
p6298
sS'PA446530'
p6299
S'Myocardial Stunning'
p6300
sS'PA153627686'
p6301
S'Raine Syndrome'
p6302
sS'PA153627687'
p6303
S'Retinal Vasculopathy with Cerebral Leukodystrophy (RVCL)'
p6304
sS'PA165108339'
p6305
S'Herpes gestationis NOS'
p6306
sS'PA165108338'
p6307
S'Unspecified teniasis'
p6308
sS'PA162372881'
p6309
S'H Syndrome'
p6310
sS'PA447074'
p6311
S'Intracranial Embolism'
p6312
sS'PA447077'
p6313
S'Pick Disease of the Brain'
p6314
sS'PA447076'
p6315
S'Headache Disorders'
p6316
sS'PA165108333'
p6317
S'Holocarboxylase synthase deficiency'
p6318
sS'PA165108332'
p6319
S'Fracture of ulna NOS'
p6320
sS'PA165108331'
p6321
S'Compulsive personality disorder NOS'
p6322
sS'PA446233'
p6323
S'Ocular Hypotension'
p6324
sS'PA165108337'
p6325
S'Occupational allergic contact dermatitis'
p6326
sS'PA165108336'
p6327
S'Deficiency of glucan 1,4-alpha-glucosidase'
p6328
sS'PA165108335'
p6329
S'Respiratory system anomaly NOS'
p6330
sS'PA444992'
p6331
S'Muscle Hypotonia'
p6332
sS'PA443761'
p6333
S'Colorectal Neoplasms, Hereditary Nonpolyposis'
p6334
sS'PA445398'
p6335
S'Pre-Eclampsia'
p6336
sS'PA443762'
p6337
S'Coma'
p6338
sS'PA443767'
p6339
S'Communicable Diseases'
p6340
sS'PA443766'
p6341
S'Common Cold'
p6342
sS'PA443768'
p6343
S'Communication Disorders'
p6344
sS'PA445297'
p6345
S'Periodontal Pocket'
p6346
sS'PA165109158'
p6347
S'Thrombosis transverse sinus'
p6348
sS'PA444915'
p6349
S'Meningitis'
p6350
sS'PA444914'
p6351
S'Meningism'
p6352
sS'PA444913'
p6353
S'Meningioma'
p6354
sS'PA165108689'
p6355
S'Tuberculosis of spleen'
p6356
sS'PA444911'
p6357
S'Meniere Disease'
p6358
sS'PA444910'
p6359
S'Memory Disorders'
p6360
sS'PA445296'
p6361
S'Periodontal Diseases'
p6362
sS'PA166123046'
p6363
S'cessation'
p6364
sS'PA446623'
p6365
S'Endodermal Sinus Tumor'
p6366
sS'PA165108993'
p6367
S'Pleurobronchopneumonia'
p6368
sS'PA446620'
p6369
S'Germinoma'
p6370
sS'PA446626'
p6371
S'Teratocarcinoma'
p6372
sS'PA446625'
p6373
S'Neuroectodermal Tumors, Primitive'
p6374
sS'PA445025'
p6375
S'Myoma'
p6376
sS'PA152407984'
p6377
S"Leber's amaurosis"
p6378
sS'PA446629'
p6379
S'Adenoma, Liver Cell'
p6380
sS'PA446628'
p6381
S'Adrenocortical Adenoma'
p6382
sS'PA152407980'
p6383
S'Joubert Syndrome-Related Disorders'
p6384
sS'PA444519'
p6385
S'Hyperemia'
p6386
sS'PA152407982'
p6387
S'Senior-Loken Syndrom'
p6388
sS'PA152407983'
p6389
S'Renal dysplasia and retinal aplasia'
p6390
sS'PA445027'
p6391
S'Myosarcoma'
p6392
sS'PA445020'
p6393
S'Myocarditis'
p6394
sS'PA445021'
p6395
S'Myoclonus'
p6396
sS'PA165108711'
p6397
S'Pregnancy-related A-G syndrome'
p6398
sS'PA152132901'
p6399
S'Hereditary Breast/Ovarian Cancer Syndrome'
p6400
sS'PA152241270'
p6401
S'Alexander Disease'
p6402
sS'PA166123306'
p6403
S'agitation'
p6404
sS'PA166123307'
p6405
S'insomnia'
p6406
sS'PA444358'
p6407
S'Hearing Loss, Conductive'
p6408
sS'PA444355'
p6409
S'Hearing Disorders'
p6410
sS'PA444354'
p6411
S'Headache'
p6412
sS'PA446993'
p6413
S'Vasculitis, Central Nervous System'
p6414
sS'PA444356'
p6415
S'Hearing Loss, Bilateral'
p6416
sS'PA446995'
p6417
S'Brain Stem Neoplasms'
p6418
sS'PA444511'
p6419
S'Hyperbilirubinemia'
p6420
sS'PA444353'
p6421
S'Craniocerebral Trauma'
p6422
sS'PA444352'
p6423
S'Head and Neck Neoplasms'
p6424
sS'PA444510'
p6425
S'Hyperalgesia'
p6426
sS'PA445028'
p6427
S'Myositis'
p6428
sS'PA154081794'
p6429
S'Waardenburg-Hirschsprung Disease'
p6430
sS'PA165108713'
p6431
S'Pancreatic fistula'
p6432
sS'PA161615744'
p6433
S'Mental Retardation, Autosomal Recessive'
p6434
sS'PA445538'
p6435
S'Retinoblastoma'
p6436
sS'PA445539'
p6437
S'Retinopathy of Prematurity'
p6438
sS'PA445532'
p6439
S'Retinal Diseases'
p6440
sS'PA445533'
p6441
S'Retinal Hemorrhage'
p6442
sS'PA445530'
p6443
S'Retinal Degeneration'
p6444
sS'PA445531'
p6445
S'Retinal Detachment'
p6446
sS'PA445537'
p6447
S'Retinitis Pigmentosa'
p6448
sS'PA445957'
p6449
S'Tuberculosis, Osteoarticular'
p6450
sS'PA446840'
p6451
S'Neck Pain'
p6452
sS'PA446847'
p6453
S'Arrhythmogenic Right Ventricular Dysplasia'
p6454
sS'PA444109'
p6455
S'Exanthema'
p6456
sS'PA165108714'
p6457
S'Short rib polydactyly syndrome'
p6458
sS'PA444104'
p6459
S'Esophagitis'
p6460
sS'PA444105'
p6461
S'Esophagitis, Peptic'
p6462
sS'PA444106'
p6463
S'Esotropia'
p6464
sS'PA444100'
p6465
S'Esophageal Fistula'
p6466
sS'PA444101'
p6467
S'Esophageal Neoplasms'
p6468
sS'PA444103'
p6469
S'Esophageal Stenosis'
p6470
sS'PA165108290'
p6471
S'Short bowel syndrome'
p6472
sS'PA161845799'
p6473
S'Aspergillosis Infection'
p6474
sS'PA166048743'
p6475
S'Urination Disorders'
p6476
sS'PA447118'
p6477
S'Hypoxia-Ischemia, Brain'
p6478
sS'PA445401'
p6479
S'Precancerous Conditions'
p6480
sS'PA165108293'
p6481
S'Induratio penis plastica'
p6482
sS'PA165108294'
p6483
S'Pinealoma'
p6484
sS'PA166048747'
p6485
S'Tinea Pedis'
p6486
sS'PA165108296'
p6487
S'Progressive cerebellar tremor'
p6488
sS'PA165108297'
p6489
S"Tailor's bunion"
p6490
sS'PA445816'
p6491
S'Telangiectasia, Hereditary Hemorrhagic'
p6492
sS'PA165109073'
p6493
S'Diffuse spasm of oesophagus'
p6494
sS'PA165109072'
p6495
S'Infection by Blastomyces dermatitidis'
p6496
sS'PA165109071'
p6497
S'Acne keloidalis'
p6498
sS'PA165109070'
p6499
S'Unspecified schizoid personality disorder'
p6500
sS'PA165109077'
p6501
S'Ecthyma'
p6502
sS'PA165109076'
p6503
S'Unspecified injury of hand'
p6504
sS'PA165109075'
p6505
S'Transmissible gastroenteritis of swine'
p6506
sS'PA165109074'
p6507
S'Capillary leak syndrome'
p6508
sS'PA165109079'
p6509
S'Congenital anomaly of unspecified limb NOS'
p6510
sS'PA165109078'
p6511
S'Infectious diarrhea NOS'
p6512
sS'PA166105294'
p6513
S'Hypertensive Nephropathy'
p6514
sS'PA165108353'
p6515
S'Oculopharyngeal muscular dystrophy'
p6516
sS'PA445746'
p6517
S'Stomatitis'
p6518
sS'PA444613'
p6519
S'Infarction'
p6520
sS'PA444614'
p6521
S'Infection'
p6522
sS'PA165108898'
p6523
S'Multiple sulphatase deficiency'
p6524
sS'PA444616'
p6525
S'Infectious Mononucleosis'
p6526
sS'PA444617'
p6527
S'Infertility'
p6528
sS'PA444618'
p6529
S'Infertility, Female'
p6530
sS'PA444619'
p6531
S'Infertility, Male'
p6532
sS'PA165108899'
p6533
S'Hypertensive encephalopathy'
p6534
sS'PA165108426'
p6535
S'Small-for-dates baby'
p6536
sS'PA446177'
p6537
S'Leukemia, Nonlymphocytic, Acute'
p6538
sS'PA165108357'
p6539
S'Erythema multiforme NOS'
p6540
sS'PA165108897'
p6541
S'Tracheobronchomalacia'
p6542
sS'PA165108424'
p6543
S'Infection due to Mycobacterium bovis'
p6544
sS'PA446175'
p6545
S'Leukemia, Myeloid, Chronic, Atypical, BCR-ABL Negative'
p6546
sS'PA165108895'
p6547
S'Pleural empyema NOS'
p6548
sS'PA165108618'
p6549
S'Alveolar periostitis'
p6550
sS'PA165108619'
p6551
S'Peripheral neuroepithelioma'
p6552
sS'PA165108614'
p6553
S'Threatened abortion NOS'
p6554
sS'PA165108615'
p6555
S"Kojevnikov's epilepsy"
p6556
sS'PA165108616'
p6557
S'Hantavirus pulmonary syndrome'
p6558
sS'PA165108617'
p6559
S'Pachydermoperiostosis of nail'
p6560
sS'PA165108610'
p6561
S'Dermal cellular nevus'
p6562
sS'PA443297'
p6563
S'Agranulocytosis'
p6564
sS'PA165108612'
p6565
S'Persistent vegetative state'
p6566
sS'PA165108613'
p6567
S'Contagious porcine pyoderma'
p6568
sS'PA165108198'
p6569
S'Primary chronic pseudo-obstruction of colon'
p6570
sS'PA445525'
p6571
S'Respiratory Tract Diseases'
p6572
sS'PA446171'
p6573
S'Leukemia, Myelogenous, Chronic, BCR-ABL Positive'
p6574
sS'PA446425'
p6575
S'Epilepsy, Frontal Lobe'
p6576
sS'PA165108891'
p6577
S'Persistent hyperplastic primary vitreous'
p6578
sS'PA165109187'
p6579
S'Abrasion of teeth NOS'
p6580
sS'PA165109186'
p6581
S'Pulmonary veno-occlusive disease'
p6582
sS'PA165109185'
p6583
S'Geographic tongue'
p6584
sS'PA165109184'
p6585
S'Somatostatinoma'
p6586
sS'PA165109183'
p6587
S"Adult onset Still's disease"
p6588
sS'PA165109182'
p6589
S'Lentigo maligna'
p6590
sS'PA165109181'
p6591
S'Cardiac tamponade'
p6592
sS'PA152238055'
p6593
S'Craniofrontonasal Syndrome'
p6594
sS'PA162372622'
p6595
S'X-linked Recessive Myopathies'
p6596
sS'PA165109189'
p6597
S'Venous stasis syndrome'
p6598
sS'PA165109188'
p6599
S'Orbit disorder NOS'
p6600
sS'PA444725'
p6601
S'Laurence-Moon Syndrome'
p6602
sS'PA165108858'
p6603
S'Invasive pulmonary aspergillosis'
p6604
sS'PA165108859'
p6605
S'Herpangina'
p6606
sS'PA444722'
p6607
S'Laryngostenosis'
p6608
sS'PA447298'
p6609
S'venous thromboembolism'
p6610
sS'PA165108852'
p6611
S'Erosion of cervix'
p6612
sS'PA165108853'
p6613
S'Ovarian hyperstimulation syndrome'
p6614
sS'PA165108850'
p6615
S'Subacromial impingement'
p6616
sS'PA165108851'
p6617
S'Bluecomb disease'
p6618
sS'PA165108856'
p6619
S'Sclerema neonatorum NOS'
p6620
sS'PA446342'
p6621
S'Bronchial Hyperreactivity'
p6622
sS'PA165108854'
p6623
S'Threatened abortion unspecified'
p6624
sS'PA165108855'
p6625
S'Congo-Crimean haemorrhagic fever'
p6626
sS'PA165108922'
p6627
S'Erysipelothrix infection, unspecified'
p6628
sS'PA165108923'
p6629
S'Nocardiosis NOS'
p6630
sS'PA165108920'
p6631
S'Hemolytic disease of fetus and newborn due to isoimmunization NOS'
p6632
sS'PA165108921'
p6633
S'Familial dysalbuminemic hyperthyroxinemia'
p6634
sS'PA165108926'
p6635
S'Coxa plana'
p6636
sS'PA165108927'
p6637
S'Pilonidal sinus/cyst NOS'
p6638
sS'PA165108924'
p6639
S'Overgrowth of filiform papillae'
p6640
sS'PA165108925'
p6641
S'Tropical sprue'
p6642
sS'PA447264'
p6643
S'heparin-induced thrombocytopenia'
p6644
sS'PA446344'
p6645
S'Mucopolysaccharidosis VII'
p6646
sS'PA165108928'
p6647
S'Jaagziekte'
p6648
sS'PA165108929'
p6649
S'Binge eating disorder'
p6650
sS'PA446345'
p6651
S'Central Nervous System Neoplasms'
p6652
sS'PA165108101'
p6653
S'Epidemic encephalitis'
p6654
sS'PA165108102'
p6655
S'Laryngeal spasm'
p6656
sS'PA165108103'
p6657
S'Unspecified choroidal hemorrhage'
p6658
sS'PA165108104'
p6659
S'Dependent personality disorder'
p6660
sS'PA143414733'
p6661
S'Meckel syndrome (MKS)'
p6662
sS'PA165108108'
p6663
S'Glycogen storage disease, type III'
p6664
sS'PA443975'
p6665
S'Earache'
p6666
sS'PA443976'
p6667
S'Ebstein Anomaly'
p6668
sS'PA443970'
p6669
S'Dystonia'
p6670
sS'PA443971'
p6671
S'Dystonia Musculorum Deformans'
p6672
sS'PA443973'
p6673
S'Ear Diseases'
p6674
sS'PA446191'
p6675
S'Rett Syndrome'
p6676
sS'PA445338'
p6677
S'Plague'
p6678
sS'PA446199'
p6679
S'Overdose'
p6680
sS'PA446198'
p6681
S'Arthritis, Psoriatic'
p6682
sS'PA445233'
p6683
S'Paralysis'
p6684
sS'PA444438'
p6685
S'Hepatitis, Alcoholic'
p6686
sS'PA152530793'
p6687
S'Brachydactyly type B'
p6688
sS'PA165108588'
p6689
S'Cardiomyopathy NOS'
p6690
sS'PA165108589'
p6691
S'Pelvic cellulitis unspecified'
p6692
sS'PA165108584'
p6693
S'Post-term pregnancy NOS'
p6694
sS'PA165108585'
p6695
S'Closed fracture of bones, unspecified'
p6696
sS'PA165108586'
p6697
S'Denture stomatitis'
p6698
sS'PA165108587'
p6699
S'Decapitation'
p6700
sS'PA165108580'
p6701
S'Deficiency of alpha-mannosidase'
p6702
sS'PA444435'
p6703
S'Hepatitis'
p6704
sS'PA165108582'
p6705
S'Halo nevus'
p6706
sS'PA444437'
p6707
S'Hepatitis B'
p6708
sS'PA443485'
p6709
S'Basal Cell Nevus Syndrome'
p6710
sS'PA443486'
p6711
S'Basal Ganglia Diseases'
p6712
sS'PA443487'
p6713
S'Beckwith-Wiedemann Syndrome'
p6714
sS'PA443455'
p6715
S'Ataxia Telangiectasia'
p6716
sS'PA443489'
p6717
S'Beriberi'
p6718
sS'PA166048724'
p6719
S'Attention Deficit and Disruptive Behavior Disorders'
p6720
sS'PA166048725'
p6721
S'Hiccup'
p6722
sS'PA166048726'
p6723
S'Nutritional and Metabolic Diseases'
p6724
sS'PA166048727'
p6725
S'Melanoma, Amelanotic'
p6726
sS'PA166048720'
p6727
S'Skin Diseases, Bacterial'
p6728
sS'PA166048721'
p6729
S'Bites, Human'
p6730
sS'PA166048722'
p6731
S'Staphylococcal Infections'
p6732
sS'PA166048723'
p6733
S'Klebsiella Infections'
p6734
sS'PA166048728'
p6735
S'Mesothelioma, Cystic'
p6736
sS'PA166048729'
p6737
S'Anuria'
p6738
sS'PA446447'
p6739
S'Porphyria, Hepatoerythropoietic'
p6740
sS'PA446446'
p6741
S'Porphyria Cutanea Tarda'
p6742
sS'PA443803'
p6743
S'Cough'
p6744
sS'PA446443'
p6745
S'Liver Failure, Acute'
p6746
sS'PA443377'
p6747
S'Anophthalmos'
p6748
sS'PA443806'
p6749
S'Cranial Nerve Diseases'
p6750
sS'PA443375'
p6751
S'Anodontia'
p6752
sS'PA443808'
p6753
S'Craniofacial Dysostosis'
p6754
sS'PA443809'
p6755
S'Craniopharyngioma'
p6756
sS'PA443378'
p6757
S'Anorexia'
p6758
sS'PA443379'
p6759
S'Olfaction Disorders'
p6760
sS'PA443570'
p6761
S'Bronchitis'
p6762
sS'PA445256'
p6763
S'Parkinson Disease, Secondary'
p6764
sS'PA443572'
p6765
S'Bronchopneumonia'
p6766
sS'PA445254'
p6767
S'Parkinson Disease'
p6768
sS'PA445253'
p6769
S'Paresthesia'
p6770
sS'PA443575'
p6771
S'Brucellosis'
p6772
sS'PA443577'
p6773
S'Bruxism'
p6774
sS'PA443578'
p6775
S'Bundle-Branch Block'
p6776
sS'PA166048885'
p6777
S'Protozoan Infections'
p6778
sS'PA445259'
p6779
S'Parotid Neoplasms'
p6780
sS'PA166048884'
p6781
S'Stomach Diseases'
p6782
sS'PA443398'
p6783
S'Aortic Valve Stenosis'
p6784
sS'PA166123209'
p6785
S'malaise'
p6786
sS'PA443390'
p6787
S'Aortic Aneurysm'
p6788
sS'PA443392'
p6789
S'Aortic Coarctation'
p6790
sS'PA443393'
p6791
S'Aortic Diseases'
p6792
sS'PA443394'
p6793
S'Aortic Rupture'
p6794
sS'PA443396'
p6795
S'Aortic Valve Insufficiency'
p6796
sS'PA166123207'
p6797
S'overall survival'
p6798
sS'PA446500'
p6799
S'Pyoderma Gangrenosum'
p6800
sS'PA445524'
p6801
S'Respiratory Sounds'
p6802
sS'PA165108180'
p6803
S'Chronic neutrophilic leukaemia'
p6804
sS'PA447004'
p6805
S'Migraine with Aura'
p6806
sS'PA165108329'
p6807
S'Klippel-Trenaunay-Weber syndrome'
p6808
sS'PA447006'
p6809
S'Essential Tremor'
p6810
sS'PA445526'
p6811
S'Respiratory Tract Infections'
p6812
sS'PA447002'
p6813
S'Tics'
p6814
sS'PA165108320'
p6815
S'Pruritus of vulva'
p6816
sS'PA165108321'
p6817
S'MPTP-induced parkinsonism'
p6818
sS'PA165108322'
p6819
S'Angiofibroma'
p6820
sS'PA165108323'
p6821
S'Lower limb anomaly, unspecified'
p6822
sS'PA447008'
p6823
S'Mobius Syndrome'
p6824
sS'PA165108325'
p6825
S'Paranoid personality disorder'
p6826
sS'PA165108326'
p6827
S'Lupoid rosacea'
p6828
sS'PA165108327'
p6829
S'Silica pneumoconiosis NOS'
p6830
sS'PA443715'
p6831
S'Chondrosarcoma'
p6832
sS'PA443716'
p6833
S'Chordoma'
p6834
sS'PA443710'
p6835
S'Choline Deficiency'
p6836
sS'PA443713'
p6837
S'Chondrodysplasia Punctata'
p6838
sS'PA445489'
p6839
S'Quadriplegia'
p6840
sS'PA443719'
p6841
S'Chorioamnionitis'
p6842
sS'PA166114924'
p6843
S'familial hypercholesterolemia - homozygous'
p6844
sS'PA444929'
p6845
S'Mental Retardation'
p6846
sS'PA153627659'
p6847
S'Renal Disease, Pediatric'
p6848
sS'PA153627658'
p6849
S'Maturity-onset Diabetes of the Young Type 5'
p6850
sS'PA444294'
p6851
S'Glucagonoma'
p6852
sS'PA444295'
p6853
S'Glycogen Storage Disease Type I'
p6854
sS'PA444920'
p6855
S'Meningitis, Pneumococcal'
p6856
sS'PA444297'
p6857
S'Glycogen Storage Disease'
p6858
sS'PA444926'
p6859
S'Menopause, Premature'
p6860
sS'PA444927'
p6861
S'Menorrhagia'
p6862
sS'PA444924'
p6863
S'Meningoencephalitis'
p6864
sS'PA444925'
p6865
S'Meningomyelocele'
p6866
sS'PA165108182'
p6867
S'Seal finger'
p6868
sS'PA446616'
p6869
S'Rhabdomyosarcoma, Embryonal'
p6870
sS'PA446615'
p6871
S'Rhabdomyosarcoma, Alveolar'
p6872
sS'PA446619'
p6873
S'Carcinoma, Embryonal'
p6874
sS'PA443629'
p6875
S'Cardiac Output, Low'
p6876
sS'PA166123369'
p6877
S'electrocardiogram qt prolonged'
p6878
sS'PA443621'
p6879
S'Adenocarcinoma, Mucinous'
p6880
sS'PA443622'
p6881
S'Carcinoma, Non-Small-Cell Lung'
p6882
sS'PA443623'
p6883
S'Carcinoma, Papillary'
p6884
sS'PA443624'
p6885
S'Carcinoma, Renal Cell'
p6886
sS'PA443626'
p6887
S'Carcinoma, Squamous Cell'
p6888
sS'PA443627'
p6889
S'Carcinoma, Transitional Cell'
p6890
sS'PA128406957'
p6891
S'5-fluorouracil associated toxicity'
p6892
sS'PA128406954'
p6893
S'Weight gain'
p6894
sS'PA443468'
p6895
S'Sarcoma, Avian'
p6896
sS'PA447252'
p6897
S'sulfamethoxazole idiosyncratic adverse drug reactions'
p6898
sS'PA445267'
p6899
S'Pelger-Huet Anomaly'
p6900
sS'PA165817016'
p6901
S'Kidney Transplantation'
p6902
sS'PA165108153'
p6903
S'Repetitive strain injury'
p6904
sS'PA447258'
p6905
S'Glomerulosclerosis'
p6906
sS'PA166048881'
p6907
S'Dental Plaque'
p6908
sS'PA166048880'
p6909
S'Infant Nutrition Disorders'
p6910
sS'PA166048883'
p6911
S'Clostridium Infections'
p6912
sS'PA166048882'
p6913
S'Mouth Diseases'
p6914
sS'PA165108572'
p6915
S'Postencephalitic parkinsonism'
p6916
sS'PA445528'
p6917
S'Restless Legs Syndrome'
p6918
sS'PA166048887'
p6919
S'Irritable Bowel Syndrome'
p6920
sS'PA166048886'
p6921
S'Infant, Premature, Diseases'
p6922
sS'PA166048889'
p6923
S'Flail Chest'
p6924
sS'PA166048888'
p6925
S'Brain Injury, Chronic'
p6926
sS'PA166123205'
p6927
S'cessation'
p6928
sS'PA166123204'
p6929
S'bioavailability'
p6930
sS'PA166123203'
p6931
S'intragastric ph'
p6932
sS'PA445520'
p6933
S'Respiratory Distress Syndrome, Adult'
p6934
sS'PA445522'
p6935
S'Respiratory Insufficiency'
p6936
sS'PA165108799'
p6937
S'Perineurial cyst'
p6938
sS'PA165108652'
p6939
S'SAPHO syndrome'
p6940
sS'PA165108334'
p6941
S'Ulnar neuropathy'
p6942
sS'PA446878'
p6943
S'Cocaine-Related Disorders'
p6944
sS'PA446879'
p6945
S'Alcohol-Related Disorders'
p6946
sS'PA446876'
p6947
S'Substance-Related Disorders'
p6948
sS'PA446874'
p6949
S'alpha 1-Antitrypsin Deficiency'
p6950
sS'PA446875'
p6951
S'Neurobehavioral Manifestations'
p6952
sS'PA446872'
p6953
S'Dyskeratosis Congenita'
p6954
sS'PA446870'
p6955
S'Thrombophilia'
p6956
s.