(lp0
(lp1
S'PA2023'
p2
aS'ACE_Inhibitor_Pathway_Pharmacodynamics'
p3
aS'angiotensin II'
p4
aS'Control'
p5
aS'AGTR1'
p6
aS'AGTR1'
p7
aS'AGTR1'
p8
aS''
p9
aa(lp10
g2
ag3
aS'AGTR1'
p11
aS'Control'
p12
aS'calcium'
p13
aS'calcium'
p14
aS'AGTR1'
p15
ag9
aa(lp16
S'PA165110622'
p17
aS'Agents_Acting_on_the_Renin_Angiotensin_System_Pathway_Pharmacodynamics'
p18
aS'angiotensin II,Angiotensin II Antagonists'
p19
aS'Control'
p20
aS'AGTR1'
p21
aS'AGTR1'
p22
aS'AGTR1'
p23
aS'Angiotensin II Antagonists'
p24
aa(lp25
g17
ag18
aS'AGTR1'
p26
aS'Control'
p27
aS'calcium'
p28
aS'calcium'
p29
aS'AGTR1'
p30
ag9
aa(lp31
S'PA164713428'
p32
aS'Losartan_Pathway_Pharmacokinetics'
p33
aS'E-3174,losartan'
p34
aS'Control'
p35
aS'AGTR1'
p36
aS'AGTR1'
p37
aS'AGTR1'
p38
aS'losartan'
p39
aa.