(lp0
(lp1
S'PA2023'
p2
aS'ACE_Inhibitor_Pathway_Pharmacodynamics'
p3
aS'aldosterone'
p4
aS'Control'
p5
aS'NR3C2'
p6
aS'NR3C2'
p7
aS'NR3C2'
p8
aS''
p9
aa(lp10
S'PA165110622'
p11
aS'Agents_Acting_on_the_Renin_Angiotensin_System_Pathway_Pharmacodynamics'
p12
aS'aldosterone,eplerenone,spironolactone'
p13
aS'Control'
p14
aS'NR3C2'
p15
aS'NR3C2'
p16
aS'NR3C2'
p17
aS'eplerenone,"spironolactone"'
p18
aa.