(lp0
(lp1
S'PA166014758'
p2
aS'Venlafaxine_Pathway_Pharmacokinetics'
p3
aS'O-desmethyl venlafaxine,venlafaxine'
p4
aS'Control'
p5
aS'SLC6A2'
p6
aS'SLC6A2'
p7
aS'SLC6A2'
p8
aS'venlafaxine'
p9
aa(lp10
S'PA2042'
p11
aS'Sympathetic_Nerve_Pathway_Neuroeffector_Junction'
p12
aS'desipramine'
p13
aS'Control'
p14
aS'SLC6A2'
p15
aS'SLC6A2'
p16
aS'SLC6A2'
p17
aS'desipramine'
p18
aa(lp19
g11
ag12
aS'SLC6A2'
p20
aS'Catalysis'
p21
aS'norepinephrine'
p22
aS'norepinephrine'
p23
aS'SLC6A2'
p24
aS''
p25
aa(lp26
g11
ag12
aS'SLC6A2'
p27
aS'Catalysis'
p28
aS'norepinephrine'
p29
aS'norepinephrine'
p30
aS'SLC6A2'
p31
ag25
aa.