(lp0
(lp1
S'PA161749006'
p2
aS'Selective_Serotonin_Reuptake_Inhibitor_Pathway_Pharmacodynamics'
p3
aS'citalopram,fluoxetine,fluvoxamine,paroxetine,sertraline'
p4
aS'Inhibition'
p5
aS'SLC6A4'
p6
aS'SLC6A4'
p7
aS'SLC6A4'
p8
aS'fluoxetine,"paroxetine","fluvoxamine","citalopram","sertraline"'
p9
aa(lp10
g2
ag3
aS'SLC6A4'
p11
aS'Catalysis'
p12
aS'serotonin'
p13
aS'serotonin'
p14
aS'SLC6A4'
p15
aS''
p16
aa(lp17
S'PA166014758'
p18
aS'Venlafaxine_Pathway_Pharmacokinetics'
p19
aS'O-desmethyl venlafaxine,venlafaxine'
p20
aS'Control'
p21
aS'SLC6A4'
p22
aS'SLC6A4'
p23
aS'SLC6A4'
p24
aS'venlafaxine'
p25
aa.